Archive member included because of file (symbol)

../lib\libmain.a(xtensa_vectors.o)
                              (call_user_start)
../lib\libmain.a(app_main.o)  ../lib\libmain.a(xtensa_vectors.o) (user_fatal_exception_handler)
../lib\libmain.a(ets_timer.o)
                              ../lib\libmain.a(app_main.o) (ets_timer_init)
../lib\libmain.a(misc.o)      ../lib\libmain.a(app_main.o) (os_install_putc1)
../lib\libmain.a(printf-stdarg.o)
                              ../lib\libmain.a(app_main.o) (printf)
../lib\libmain.a(spi_flash.o)
                              ../lib\libmain.a(app_main.o) (flashchip)
../lib\libmain.a(uart.o)      ../lib\libmain.a(app_main.o) (uart_div_modify)
../lib\libmain.a(user_interface.o)
                              ../lib\libmain.a(app_main.o) (rst_if)
../lib\libmain.a(os_cpu_a.o)  ../lib\libmain.a(xtensa_vectors.o) (_xt_int_enter)
../lib\libmain.a(xtensa_context.o)
                              ../lib\libmain.a(os_cpu_a.o) (_xt_context_save)
../lib\libmain.a(timers.o)    ../lib\libmain.a(user_interface.o) (os_timer_setfn)
../lib\libfreertos.a(heap_4.o)
                              ../lib\libmain.a(timers.o) (pvPortMalloc)
../lib\libfreertos.a(port.o)  ../lib\libmain.a(app_main.o) (vPortEnterCritical)
../lib\libfreertos.a(queue.o)
                              ../lib\libmain.a(ets_timer.o) (xQueueGenericCreate)
../lib\libfreertos.a(tasks.o)
                              ../lib\libmain.a(os_cpu_a.o) (pxCurrentTCB)
../lib\libfreertos.a(timers.o)
                              ../lib\libfreertos.a(tasks.o) (xTimerCreateTimerTask)
../lib\libfreertos.a(list.o)  ../lib\libfreertos.a(queue.o) (vListInitialise)
../lib\liblwip.a(dhcp.o)      ../lib\libmain.a(user_interface.o) (dhcp_start)
../lib\liblwip.a(dns.o)       ../lib\liblwip.a(dhcp.o) (dns_setserver)
../lib\liblwip.a(etharp.o)    ../lib\liblwip.a(dhcp.o) (etharp_query)
../lib\liblwip.a(ip4_addr.o)  ../lib\liblwip.a(dhcp.o) (ip_addr_any)
../lib\liblwip.a(ip4.o)       ../lib\liblwip.a(etharp.o) (ip_input)
../lib\liblwip.a(ip_frag.o)   ../lib\liblwip.a(ip4.o) (ip_frag)
../lib\liblwip.a(memp.o)      ../lib\liblwip.a(etharp.o) (memp_sizes)
../lib\liblwip.a(netif.o)     ../lib\liblwip.a(dhcp.o) (netif_list)
../lib\liblwip.a(pbuf.o)      ../lib\liblwip.a(dhcp.o) (pbuf_alloc)
../lib\liblwip.a(raw.o)       ../lib\liblwip.a(ip4.o) (raw_input)
../lib\liblwip.a(stats.o)     ../lib\liblwip.a(etharp.o) (lwip_stats)
../lib\liblwip.a(sys_arch.o)  ../lib\liblwip.a(pbuf.o) (sys_arch_protect)
../lib\liblwip.a(tcp_in.o)    ../lib\liblwip.a(ip4.o) (tcp_input)
../lib\liblwip.a(tcpip.o)     ../lib\liblwip.a(pbuf.o) (tcpip_callback_with_block)
../lib\liblwip.a(tcp.o)       ../lib\liblwip.a(netif.o) (tcp_active_pcbs)
../lib\liblwip.a(tcp_out.o)   ../lib\liblwip.a(tcp.o) (tcp_send_fin)
../lib\liblwip.a(timers.o)    ../lib\liblwip.a(tcpip.o) (sys_timeout)
../lib\liblwip.a(udp.o)       ../lib\liblwip.a(ip4.o) (udp_input)
../lib\liblwip.a(icmp.o)      ../lib\liblwip.a(ip4.o) (icmp_input)
../lib\liblwip.a(inet_chksum.o)
                              ../lib\liblwip.a(tcp_in.o) (inet_chksum_pseudo)
../lib\liblwip.a(init.o)      ../lib\liblwip.a(tcpip.o) (lwip_init)
../lib\liblwip.a(sockets.o)   ../lib\liblwip.a(init.o) (lwip_socket_init)
../lib\liblwip.a(api_lib.o)   ../lib\liblwip.a(sockets.o) (netconn_new_with_proto_and_callback)
../lib\liblwip.a(api_msg.o)   ../lib\liblwip.a(api_lib.o) (netconn_alloc)
../lib\liblwip.a(netbuf.o)    ../lib\liblwip.a(sockets.o) (netbuf_delete)
user/.output/eagle/lib/libuser.a(user_main.o)
                              ../lib\libmain.a(app_main.o) (user_init)
user/.output/eagle/lib/libuser.a(spiram_fifo.o)
                              user/.output/eagle/lib/libuser.a(user_main.o) (spiRamFifoInit)
user/.output/eagle/lib/libuser.a(iram_buf.o)
                              user/.output/eagle/lib/libuser.a(spiram_fifo.o) (eraminfo)
mad/.output/eagle/lib/libmad.a(stream.o)
                              user/.output/eagle/lib/libuser.a(user_main.o) (mad_stream_init)
mad/.output/eagle/lib/libmad.a(synth.o)
                              user/.output/eagle/lib/libuser.a(user_main.o) (mad_synth_init)
mad/.output/eagle/lib/libmad.a(bit.o)
                              mad/.output/eagle/lib/libmad.a(stream.o) (mad_bit_init)
mad/.output/eagle/lib/libmad.a(frame.o)
                              user/.output/eagle/lib/libuser.a(user_main.o) (mad_frame_decode)
mad/.output/eagle/lib/libmad.a(timer.o)
                              mad/.output/eagle/lib/libmad.a(frame.o) (mad_timer_set)
mad/.output/eagle/lib/libmad.a(align.o)
                              mad/.output/eagle/lib/libmad.a(bit.o) (unalShort)
mad/.output/eagle/lib/libmad.a(layer3.o)
                              mad/.output/eagle/lib/libmad.a(frame.o) (mad_layer_III)
mad/.output/eagle/lib/libmad.a(huffman.o)
                              mad/.output/eagle/lib/libmad.a(layer3.o) (mad_huff_pair_table)
driver/.output/eagle/lib/libdriver.a(uart.o)
                              user/.output/eagle/lib/libuser.a(user_main.o) (UART_SetBaudrate)
driver/.output/eagle/lib/libdriver.a(i2s_freertos.o)
                              user/.output/eagle/lib/libuser.a(user_main.o) (i2sInit)
../lib\libmc.a(lib_a-bzero.o)
                              ../lib\libmain.a(app_main.o) (bzero)
../lib\libmc.a(lib_a-memcmp.o)
                              ../lib\libmain.a(user_interface.o) (memcmp)
../lib\libmc.a(lib_a-memmove.o)
                              user/.output/eagle/lib/libuser.a(user_main.o) (memmove)
../lib\libmc.a(lib_a-strcmp.o)
                              ../lib\liblwip.a(dns.o) (strcmp)
../lib\libmc.a(lib_a-strcpy.o)
                              user/.output/eagle/lib/libuser.a(user_main.o) (strcpy)
../lib\libmc.a(lib_a-strncmp.o)
                              ../lib\libmain.a(user_interface.o) (strncmp)
c:/espressif/xtensa-lx106-elf/bin/../lib/gcc/xtensa-lx106-elf/4.8.2/../../../../xtensa-lx106-elf/lib\libhal.a(clock.o)
                              ../lib\libmain.a(misc.o) (xthal_get_ccount)
c:/espressif/xtensa-lx106-elf/bin/../lib/gcc/xtensa-lx106-elf/4.8.2/../../../../xtensa-lx106-elf/lib\libhal.a(int_asm--set_intset.o)
                              ../lib\libfreertos.a(port.o) (xthal_set_intset)
../lib\libmphy.a(phy_chip_v5_ana_romfunc.o)
                              driver/.output/eagle/lib/libdriver.a(i2s_freertos.o) (rom_i2c_writeReg_Mask)
../lib\libmphy.a(phy_chip_v5_romfunc.o)
                              ../lib\libmphy.a(phy_chip_v5_ana_romfunc.o) (g_phyFuns)
../lib\libmphy.a(phy.o)       ../lib\libmain.a(app_main.o) (phy_enable_agc)
../lib\libmphy.a(phy_chip_v6.o)
                              ../lib\libmain.a(app_main.o) (register_chipv6_phy)
../lib\libmphy.a(phy_chip_v6_ana.o)
                              ../lib\libmphy.a(phy_chip_v6.o) (ram_pbus_set_rxgain)
../lib\libmphy.a(phy_chip_v6_cal.o)
                              ../lib\libmphy.a(phy_chip_v6.o) (loop_pwctrl_pwdet_error_accum_high_power)
../lib\libmphy.a(phy_sleep.o)
                              ../lib\libmphy.a(phy_chip_v6.o) (pm_set_sleep_cycles)
../lib\libmphy.a(phy_chip_v5_cal_romfunc.o)
                              ../lib\libmphy.a(phy_chip_v5_romfunc.o) (rom_cal_tos_v50)
../lib\libpp.a(lmac.o)        ../lib\libmain.a(app_main.o) (lmacInit)
../lib\libpp.a(pm.o)          ../lib\libmain.a(os_cpu_a.o) (CCOMPARE_AddVal)
../lib\libpp.a(pp.o)          ../lib\libpp.a(pm.o) (pend_flag_noise_check)
../lib\libpp.a(rate_control.o)
                              ../lib\libpp.a(lmac.o) (RC_SetBasicRate)
../lib\libpp.a(trc.o)         ../lib\libpp.a(lmac.o) (rcUpdateTxDone)
../lib\libpp.a(wdev.o)        ../lib\libpp.a(pp.o) (wDevCtrl)
../lib\libpp.a(esf_buf.o)     ../lib\libpp.a(wdev.o) (esf_rx_buf_alloc)
../lib\libpp.a(if_hwctrl.o)   ../lib\libpp.a(pm.o) (ic_get_addr)
../lib\libnet80211.a(ieee80211.o)
                              ../lib\libmain.a(app_main.o) (g_ic)
../lib\libnet80211.a(ieee80211_crypto.o)
                              ../lib\libnet80211.a(ieee80211.o) (ieee80211_crypto_attach)
../lib\libnet80211.a(ieee80211_ets.o)
                              ../lib\libpp.a(pm.o) (ieee80211_getmgtframe)
../lib\libnet80211.a(ieee80211_hostap.o)
                              ../lib\libpp.a(pp.o) (TmpSTAAPCloseAP)
../lib\libnet80211.a(ieee80211_ht.o)
                              ../lib\libmain.a(user_interface.o) (ieee80211_ht_attach)
../lib\libnet80211.a(ieee80211_input.o)
                              ../lib\libnet80211.a(ieee80211_hostap.o) (ieee80211_decap)
../lib\libnet80211.a(ieee80211_output.o)
                              ../lib\libpp.a(pm.o) (ieee80211_send_setup)
../lib\libnet80211.a(ieee80211_phy.o)
                              ../lib\libnet80211.a(ieee80211.o) (ieee80211_get_ratetable)
../lib\libnet80211.a(ieee80211_power.o)
                              ../lib\libnet80211.a(ieee80211_hostap.o) (ieee80211_psq_init)
../lib\libnet80211.a(ieee80211_proto.o)
                              ../lib\libpp.a(wdev.o) (ieee80211_addr_bcast)
../lib\libnet80211.a(ieee80211_scan.o)
                              ../lib\libmain.a(user_interface.o) (scannum)
../lib\libnet80211.a(ieee80211_sta.o)
                              ../lib\libmain.a(user_interface.o) (ieee80211_sta_new_state)
../lib\libnet80211.a(wl_chm.o)
                              ../lib\libnet80211.a(ieee80211.o) (chm_init)
../lib\libnet80211.a(wl_cnx.o)
                              ../lib\libmain.a(user_interface.o) (sta_con_timer)
../lib\libnet80211.a(ieee80211_action.o)
                              ../lib\libnet80211.a(ieee80211_ht.o) (ieee80211_send_action_register)
../lib\libwpa.a(ap_config.o)  ../lib\libnet80211.a(ieee80211_hostap.o) (hostapd_setup_wpa_psk)
../lib\libwpa.a(common.o)     ../lib\libmain.a(user_interface.o) (hexstr2bin)
../lib\libwpa.a(os_xtensa.o)  ../lib\libwpa.a(common.o) (os_get_time)
../lib\libwpa.a(sha1-pbkdf2.o)
                              ../lib\libmain.a(user_interface.o) (pbkdf2_sha1)
../lib\libwpa.a(wpa_auth.o)   ../lib\libnet80211.a(ieee80211_hostap.o) (wpa_init)
../lib\libwpa.a(wpa_auth_ie.o)
                              ../lib\libwpa.a(wpa_auth.o) (wpa_auth_gen_wpa_ie)
../lib\libwpa.a(wpa.o)        ../lib\libnet80211.a(ieee80211_sta.o) (wpa_sm_rx_eapol)
../lib\libwpa.a(wpa_common.o)
                              ../lib\libwpa.a(wpa_auth_ie.o) (wpa_parse_wpa_ie_rsn)
../lib\libwpa.a(wpa_debug.o)  ../lib\libwpa.a(wpa_auth.o) (eloop_cancel_timeout)
../lib\libwpa.a(wpa_ie.o)     ../lib\libnet80211.a(ieee80211_scan.o) (wpa_parse_wpa_ie)
../lib\libwpa.a(wpa_main.o)   ../lib\libnet80211.a(wl_cnx.o) (ppInstallKey)
../lib\libwpa.a(wpas_glue.o)  ../lib\libwpa.a(wpa.o) (wpa_sm_alloc_eapol)
../lib\libwpa.a(aes-unwrap.o)
                              ../lib\libwpa.a(wpa.o) (aes_unwrap)
../lib\libwpa.a(aes-wrap.o)   ../lib\libwpa.a(wpa_auth.o) (aes_wrap)
../lib\libwpa.a(md5.o)        ../lib\libwpa.a(wpa_common.o) (hmac_md5)
../lib\libwpa.a(md5-internal.o)
                              ../lib\libwpa.a(md5.o) (md5_vector)
../lib\libwpa.a(rc4.o)        ../lib\libwpa.a(wpa_auth.o) (rc4_skip)
../lib\libwpa.a(sha1.o)       ../lib\libwpa.a(sha1-pbkdf2.o) (hmac_sha1_vector)
../lib\libwpa.a(sha1-internal.o)
                              ../lib\libwpa.a(sha1.o) (sha1_vector)
../lib\libwpa.a(aes-internal-dec.o)
                              ../lib\libwpa.a(aes-unwrap.o) (aes_decrypt_init)
../lib\libwpa.a(aes-internal-enc.o)
                              ../lib\libwpa.a(aes-wrap.o) (aes_encrypt_init)
../lib\libwpa.a(aes-internal.o)
                              ../lib\libwpa.a(aes-internal-dec.o) (Te0)
../lib\libmain.a(libc.o)      ../lib\libwpa.a(common.o) (strrchr)
../lib\liblwip.a(ethernetif.o)
                              ../lib\libnet80211.a(ieee80211_hostap.o) (ethernetif_input)
../lib\liblwip.a(netdb.o)     user/.output/eagle/lib/libuser.a(user_main.o) (lwip_gethostbyname)
main/.output/eagle/lib/libaddmmain.a(phy_chip_v6_unused.o)
                              ../lib\libmphy.a(phy_chip_v6.o) (chip_v6_set_sense)
../lib\libmc.a(lib_a-strncpy.o)
                              ../lib\libnet80211.a(ieee80211_scan.o) (strncpy)
../lib\libmgcc.a(_ashrdi3.o)  ../lib\libmphy.a(phy_chip_v6.o) (__ashrdi3)
../lib\libmgcc.a(_divsf3.o)   ../lib\libmphy.a(phy_chip_v6.o) (__divsf3)
../lib\libmgcc.a(_fixsfsi.o)  ../lib\libmphy.a(phy_chip_v6.o) (__fixsfsi)
../lib\libmgcc.a(_modsi3.o)   ../lib\libmphy.a(phy_chip_v6.o) (__modsi3)
../lib\libmgcc.a(_popcountsi2.o)
                              ../lib\libpp.a(trc.o) (__popcountsi2)
../lib\libmgcc.a(_popcount_tab.o)
                              ../lib\libmgcc.a(_popcountsi2.o) (__popcount_tab)
../lib\libnet80211.a(ieee80211_crypto_ccmp.o)
                              ../lib\libwpa.a(wpa_auth.o) (ccmp)
../lib\libnet80211.a(ieee80211_crypto_tkip.o)
                              ../lib\libwpa.a(wpa_auth.o) (tkip)
../lib\libnet80211.a(ieee80211_crypto_wep.o)
                              ../lib\libwpa.a(wpa_auth.o) (wep)

Allocating common symbols
Common symbol       size              file

MainData            0xa07             mad/.output/eagle/lib/libmad.a(stream.o)
xUartTaskHandle     0x4               driver/.output/eagle/lib/libdriver.a(uart.o)
eraminfo            0x8               user/.output/eagle/lib/libuser.a(iram_buf.o)
xQueueUart          0x4               driver/.output/eagle/lib/libdriver.a(uart.o)

Memory Configuration

Name             Origin             Length             Attributes
dport0_0_seg     0x3ff00000         0x00000010
dram0_0_seg      0x3ffe8000         0x00014000
iram1_0_seg      0x40100000         0x00008000
irom0_0_seg      0x40209000         0x00073000
*default*        0x00000000         0xffffffff

Linker script and memory map

START GROUP
LOAD ../lib\libmc.a
LOAD ../lib\libmgcc.a
LOAD c:/espressif/xtensa-lx106-elf/bin/../lib/gcc/xtensa-lx106-elf/4.8.2/../../../../xtensa-lx106-elf/lib\libhal.a
LOAD ../lib\libmphy.a
LOAD ../lib\libpp.a
LOAD ../lib\libnet80211.a
LOAD ../lib\libwpa.a
LOAD ../lib\libmain.a
LOAD ../lib\libfreertos.a
LOAD ../lib\liblwip.a
LOAD ../lib\libudhcp.a
LOAD main/.output/eagle/lib/libaddmmain.a
LOAD user/.output/eagle/lib/libuser.a
LOAD mad/.output/eagle/lib/libmad.a
LOAD driver/.output/eagle/lib/libdriver.a
END GROUP
                0x40000000                PROVIDE (_memmap_vecbase_reset, 0x40000000)
                0x00000110                _memmap_cacheattr_wb_base = 0x110
                0x00000110                _memmap_cacheattr_wt_base = 0x110
                0x00000220                _memmap_cacheattr_bp_base = 0x220
                0xfffff00f                _memmap_cacheattr_unused_mask = 0xfffff00f
                0x2222211f                _memmap_cacheattr_wb_trapnull = 0x2222211f
                0x2222211f                _memmap_cacheattr_wba_trapnull = 0x2222211f
                0x2222211f                _memmap_cacheattr_wbna_trapnull = 0x2222211f
                0x2222211f                _memmap_cacheattr_wt_trapnull = 0x2222211f
                0x2222222f                _memmap_cacheattr_bp_trapnull = 0x2222222f
                0xfffff11f                _memmap_cacheattr_wb_strict = 0xfffff11f
                0xfffff11f                _memmap_cacheattr_wt_strict = 0xfffff11f
                0xfffff22f                _memmap_cacheattr_bp_strict = 0xfffff22f
                0x22222112                _memmap_cacheattr_wb_allvalid = 0x22222112
                0x22222112                _memmap_cacheattr_wt_allvalid = 0x22222112
                0x22222222                _memmap_cacheattr_bp_allvalid = 0x22222222
                0x2222211f                PROVIDE (_memmap_cacheattr_reset, _memmap_cacheattr_wb_trapnull)

.dport0.rodata  0x3ff00000        0x0
                0x3ff00000                _dport0_rodata_start = ABSOLUTE (.)
 *(.dport0.rodata)
 *(.dport.rodata)
                0x3ff00000                _dport0_rodata_end = ABSOLUTE (.)

.dport0.literal
                0x3ff00000        0x0
                0x3ff00000                _dport0_literal_start = ABSOLUTE (.)
 *(.dport0.literal)
 *(.dport.literal)
                0x3ff00000                _dport0_literal_end = ABSOLUTE (.)

.dport0.data    0x3ff00000        0x0
                0x3ff00000                _dport0_data_start = ABSOLUTE (.)
 *(.dport0.data)
 *(.dport.data)
                0x3ff00000                _dport0_data_end = ABSOLUTE (.)

.data           0x3ffe8000      0x6a8
                0x3ffe8000                _data_start = ABSOLUTE (.)
 *(.data)
 .data          0x3ffe8000        0x4 ../lib\libmain.a(xtensa_vectors.o)
                0x3ffe8000                _Pri_3_HandlerAddress
 .data          0x3ffe8004        0x0 ../lib\libmain.a(app_main.o)
 .data          0x3ffe8004        0x0 ../lib\libmain.a(ets_timer.o)
 .data          0x3ffe8004        0x4 ../lib\libmain.a(misc.o)
 .data          0x3ffe8008        0x0 ../lib\libmain.a(printf-stdarg.o)
 .data          0x3ffe8008       0x18 ../lib\libmain.a(spi_flash.o)
                0x3ffe8008                flashchip
 .data          0x3ffe8020        0x0 ../lib\libmain.a(uart.o)
 .data          0x3ffe8020        0x1 ../lib\libmain.a(user_interface.o)
                0x3ffe8020                dhcpc_flag
 .data          0x3ffe8021        0x0 ../lib\libmain.a(os_cpu_a.o)
 .data          0x3ffe8021        0x0 ../lib\libmain.a(xtensa_context.o)
 .data          0x3ffe8021        0x0 ../lib\libmain.a(timers.o)
 .data          0x3ffe8021        0x0 ../lib\libfreertos.a(heap_4.o)
 .data          0x3ffe8021        0x0 ../lib\libfreertos.a(port.o)
 .data          0x3ffe8021        0x0 ../lib\libfreertos.a(queue.o)
 *fill*         0x3ffe8021        0x3 
 .data          0x3ffe8024        0x4 ../lib\libfreertos.a(tasks.o)
 .data          0x3ffe8028        0x0 ../lib\libfreertos.a(timers.o)
 .data          0x3ffe8028        0x0 ../lib\libfreertos.a(list.o)
 .data          0x3ffe8028        0x4 ../lib\liblwip.a(dhcp.o)
 .data          0x3ffe802c        0x0 ../lib\liblwip.a(dns.o)
 .data          0x3ffe802c        0x0 ../lib\liblwip.a(etharp.o)
 .data          0x3ffe802c        0x0 ../lib\liblwip.a(ip4_addr.o)
 .data          0x3ffe802c        0x0 ../lib\liblwip.a(ip4.o)
 .data          0x3ffe802c        0x0 ../lib\liblwip.a(ip_frag.o)
 .data          0x3ffe802c        0x0 ../lib\liblwip.a(memp.o)
 .data          0x3ffe802c        0x0 ../lib\liblwip.a(netif.o)
 .data          0x3ffe802c        0x0 ../lib\liblwip.a(pbuf.o)
 .data          0x3ffe802c        0x0 ../lib\liblwip.a(raw.o)
 .data          0x3ffe802c        0x0 ../lib\liblwip.a(stats.o)
 .data          0x3ffe802c        0x0 ../lib\liblwip.a(sys_arch.o)
 .data          0x3ffe802c        0x0 ../lib\liblwip.a(tcp_in.o)
 .data          0x3ffe802c        0x0 ../lib\liblwip.a(tcpip.o)
 .data          0x3ffe802c        0x8 ../lib\liblwip.a(tcp.o)
 .data          0x3ffe8034        0x0 ../lib\liblwip.a(tcp_out.o)
 .data          0x3ffe8034        0x0 ../lib\liblwip.a(timers.o)
 .data          0x3ffe8034        0x2 ../lib\liblwip.a(udp.o)
 .data          0x3ffe8036        0x0 ../lib\liblwip.a(icmp.o)
 .data          0x3ffe8036        0x0 ../lib\liblwip.a(inet_chksum.o)
 .data          0x3ffe8036        0x0 ../lib\liblwip.a(init.o)
 .data          0x3ffe8036        0x0 ../lib\liblwip.a(sockets.o)
 .data          0x3ffe8036        0x0 ../lib\liblwip.a(api_lib.o)
 .data          0x3ffe8036        0x0 ../lib\liblwip.a(api_msg.o)
 .data          0x3ffe8036        0x0 ../lib\liblwip.a(netbuf.o)
 .data          0x3ffe8036        0x0 user/.output/eagle/lib/libuser.a(user_main.o)
 .data          0x3ffe8036        0x0 user/.output/eagle/lib/libuser.a(spiram_fifo.o)
 *fill*         0x3ffe8036        0x2 
 .data          0x3ffe8038       0x34 user/.output/eagle/lib/libuser.a(iram_buf.o)
                0x3ffe8038                txtSFreq
                0x3ffe8048                txtFSize
                0x3ffe805c                txtSPIFlashInterface
 .data          0x3ffe806c        0x0 mad/.output/eagle/lib/libmad.a(stream.o)
 .data          0x3ffe806c        0x0 mad/.output/eagle/lib/libmad.a(synth.o)
 .data          0x3ffe806c        0x0 mad/.output/eagle/lib/libmad.a(bit.o)
 .data          0x3ffe806c        0x0 mad/.output/eagle/lib/libmad.a(frame.o)
 .data          0x3ffe806c        0x0 mad/.output/eagle/lib/libmad.a(timer.o)
 .data          0x3ffe806c        0x0 mad/.output/eagle/lib/libmad.a(align.o)
 .data          0x3ffe806c        0x0 mad/.output/eagle/lib/libmad.a(layer3.o)
 .data          0x3ffe806c        0x0 mad/.output/eagle/lib/libmad.a(huffman.o)
 .data          0x3ffe806c        0x0 driver/.output/eagle/lib/libdriver.a(uart.o)
 .data          0x3ffe806c        0x0 driver/.output/eagle/lib/libdriver.a(i2s_freertos.o)
 .data          0x3ffe806c        0x0 ../lib\libmc.a(lib_a-bzero.o)
 .data          0x3ffe806c        0x0 ../lib\libmc.a(lib_a-memcmp.o)
 .data          0x3ffe806c        0x0 ../lib\libmc.a(lib_a-memmove.o)
 .data          0x3ffe806c        0x0 ../lib\libmc.a(lib_a-strcmp.o)
 .data          0x3ffe806c        0x0 ../lib\libmc.a(lib_a-strcpy.o)
 .data          0x3ffe806c        0x0 ../lib\libmc.a(lib_a-strncmp.o)
 .data          0x3ffe806c        0x0 c:/espressif/xtensa-lx106-elf/bin/../lib/gcc/xtensa-lx106-elf/4.8.2/../../../../xtensa-lx106-elf/lib\libhal.a(clock.o)
 .data          0x3ffe806c        0x0 c:/espressif/xtensa-lx106-elf/bin/../lib/gcc/xtensa-lx106-elf/4.8.2/../../../../xtensa-lx106-elf/lib\libhal.a(int_asm--set_intset.o)
 .data          0x3ffe806c        0x0 ../lib\libmphy.a(phy_chip_v5_ana_romfunc.o)
 .data          0x3ffe806c      0x11c ../lib\libmphy.a(phy_chip_v5_romfunc.o)
                0x3ffe806c                g_phyFuns
                0x3ffe8070                g_phyFuns_instance
 .data          0x3ffe8188        0x0 ../lib\libmphy.a(phy.o)
 *fill*         0x3ffe8188        0x8 
 .data          0x3ffe8190       0x53 ../lib\libmphy.a(phy_chip_v6.o)
                0x3ffe8192                tx_rf_ana_gain
                0x3ffe81b4                tx_pwctrl_atten_init_en
                0x3ffe81c0                rx_gain_swp
                0x3ffe81e0                test_rffreq_txcap
 .data          0x3ffe81e3        0x0 ../lib\libmphy.a(phy_chip_v6_ana.o)
 .data          0x3ffe81e3        0x0 ../lib\libmphy.a(phy_chip_v6_cal.o)
 *fill*         0x3ffe81e3        0x1 
 .data          0x3ffe81e4        0x4 ../lib\libmphy.a(phy_sleep.o)
                0x3ffe81e4                chip_version
 .data          0x3ffe81e8        0x7 ../lib\libmphy.a(phy_chip_v5_cal_romfunc.o)
 .data          0x3ffe81ef        0x0 ../lib\libpp.a(lmac.o)
 *fill*         0x3ffe81ef        0x1 
 .data          0x3ffe81f0        0x1 ../lib\libpp.a(pm.o)
 *fill*         0x3ffe81f1        0x3 
 .data          0x3ffe81f4       0x14 ../lib\libpp.a(pp.o)
                0x3ffe81f4                soft_wdt_interval
                0x3ffe81f8                NoiseTimerInterval
                0x3ffe8200                sleep_start_wait_time
 *fill*         0x3ffe8208        0x8 
 .data          0x3ffe8210       0x40 ../lib\libpp.a(rate_control.o)
 .data          0x3ffe8250      0x22c ../lib\libpp.a(trc.o)
 *fill*         0x3ffe847c        0x4 
 .data          0x3ffe8480       0x10 ../lib\libpp.a(wdev.o)
 .data          0x3ffe8490        0x0 ../lib\libpp.a(esf_buf.o)
 .data          0x3ffe8490        0x0 ../lib\libpp.a(if_hwctrl.o)
 .data          0x3ffe8490        0x0 ../lib\libnet80211.a(ieee80211.o)
 .data          0x3ffe8490        0x0 ../lib\libnet80211.a(ieee80211_crypto.o)
 .data          0x3ffe8490        0x0 ../lib\libnet80211.a(ieee80211_ets.o)
 .data          0x3ffe8490        0x0 ../lib\libnet80211.a(ieee80211_hostap.o)
 .data          0x3ffe8490        0x0 ../lib\libnet80211.a(ieee80211_ht.o)
 .data          0x3ffe8490        0x0 ../lib\libnet80211.a(ieee80211_input.o)
 .data          0x3ffe8490        0x0 ../lib\libnet80211.a(ieee80211_output.o)
 .data          0x3ffe8490      0x1a8 ../lib\libnet80211.a(ieee80211_phy.o)
 .data          0x3ffe8638        0x0 ../lib\libnet80211.a(ieee80211_power.o)
 .data          0x3ffe8638        0x6 ../lib\libnet80211.a(ieee80211_proto.o)
                0x3ffe8638                ieee80211_addr_bcast
 .data          0x3ffe863e        0x0 ../lib\libnet80211.a(ieee80211_scan.o)
 .data          0x3ffe863e        0x0 ../lib\libnet80211.a(ieee80211_sta.o)
 .data          0x3ffe863e        0x0 ../lib\libnet80211.a(wl_chm.o)
 .data          0x3ffe863e        0x0 ../lib\libnet80211.a(wl_cnx.o)
 *fill*         0x3ffe863e        0x2 
 .data          0x3ffe8640       0x1c ../lib\libnet80211.a(ieee80211_action.o)
 .data          0x3ffe865c        0x0 ../lib\libwpa.a(ap_config.o)
 .data          0x3ffe865c        0x0 ../lib\libwpa.a(common.o)
 .data          0x3ffe865c        0x0 ../lib\libwpa.a(os_xtensa.o)
 .data          0x3ffe865c        0x0 ../lib\libwpa.a(sha1-pbkdf2.o)
 .data          0x3ffe865c        0x0 ../lib\libwpa.a(wpa_auth.o)
 .data          0x3ffe865c        0x0 ../lib\libwpa.a(wpa_auth_ie.o)
 .data          0x3ffe865c        0x0 ../lib\libwpa.a(wpa.o)
 .data          0x3ffe865c        0x0 ../lib\libwpa.a(wpa_common.o)
 .data          0x3ffe865c        0x0 ../lib\libwpa.a(wpa_debug.o)
 .data          0x3ffe865c        0x0 ../lib\libwpa.a(wpa_ie.o)
 .data          0x3ffe865c        0x0 ../lib\libwpa.a(wpa_main.o)
 .data          0x3ffe865c        0x0 ../lib\libwpa.a(wpas_glue.o)
 .data          0x3ffe865c        0x0 ../lib\libwpa.a(aes-unwrap.o)
 .data          0x3ffe865c        0x0 ../lib\libwpa.a(aes-wrap.o)
 .data          0x3ffe865c        0x0 ../lib\libwpa.a(md5.o)
 .data          0x3ffe865c        0x0 ../lib\libwpa.a(md5-internal.o)
 .data          0x3ffe865c        0x0 ../lib\libwpa.a(rc4.o)
 .data          0x3ffe865c        0x0 ../lib\libwpa.a(sha1.o)
 .data          0x3ffe865c        0x0 ../lib\libwpa.a(sha1-internal.o)
 .data          0x3ffe865c        0x0 ../lib\libwpa.a(aes-internal-dec.o)
 .data          0x3ffe865c        0x0 ../lib\libwpa.a(aes-internal-enc.o)
 .data          0x3ffe865c        0x0 ../lib\libwpa.a(aes-internal.o)
 .data          0x3ffe865c        0x4 ../lib\libmain.a(libc.o)
 .data          0x3ffe8660        0x0 ../lib\liblwip.a(ethernetif.o)
 .data          0x3ffe8660        0x0 ../lib\liblwip.a(netdb.o)
 .data          0x3ffe8660        0x0 main/.output/eagle/lib/libaddmmain.a(phy_chip_v6_unused.o)
 .data          0x3ffe8660        0x0 ../lib\libmc.a(lib_a-strncpy.o)
 .data          0x3ffe8660        0x0 ../lib\libmgcc.a(_ashrdi3.o)
 .data          0x3ffe8660        0x0 ../lib\libmgcc.a(_divsf3.o)
 .data          0x3ffe8660        0x0 ../lib\libmgcc.a(_fixsfsi.o)
 .data          0x3ffe8660        0x0 ../lib\libmgcc.a(_modsi3.o)
 .data          0x3ffe8660        0x0 ../lib\libmgcc.a(_popcountsi2.o)
 .data          0x3ffe8660        0x0 ../lib\libmgcc.a(_popcount_tab.o)
 .data          0x3ffe8660       0x18 ../lib\libnet80211.a(ieee80211_crypto_ccmp.o)
                0x3ffe8660                ccmp
 .data          0x3ffe8678       0x18 ../lib\libnet80211.a(ieee80211_crypto_tkip.o)
                0x3ffe8678                tkip
 .data          0x3ffe8690       0x18 ../lib\libnet80211.a(ieee80211_crypto_wep.o)
                0x3ffe8690                wep
 *(.data.*)
 *(.gnu.linkonce.d.*)
 *(.data1)
 *(.sdata)
 *(.sdata.*)
 *(.gnu.linkonce.s.*)
 *(.sdata2)
 *(.sdata2.*)
 *(.gnu.linkonce.s2.*)
 *(.jcr)
                0x3ffe86a8                _data_end = ABSOLUTE (.)

.rodata         0x3ffe86b0     0x19b8
                0x3ffe86b0                _rodata_start = ABSOLUTE (.)
 *(.rodata)
 .rodata        0x3ffe86b0       0x3b ../lib\libmain.a(xtensa_vectors.o)
 *fill*         0x3ffe86eb        0x1 
 .rodata        0x3ffe86ec        0x2 ../lib\libfreertos.a(heap_4.o)
 *fill*         0x3ffe86ee        0x2 
 .rodata        0x3ffe86f0       0x14 ../lib\libfreertos.a(tasks.o)
 .rodata        0x3ffe8704        0xc ../lib\liblwip.a(etharp.o)
                0x3ffe8704                ethbroadcast
                0x3ffe870a                ethzero
 .rodata        0x3ffe8710        0x8 ../lib\liblwip.a(ip4_addr.o)
                0x3ffe8710                ip_addr_any
                0x3ffe8714                ip_addr_broadcast
 *fill*         0x3ffe8718        0x8 
 .rodata        0x3ffe8720       0x1c ../lib\liblwip.a(memp.o)
                0x3ffe8720                memp_sizes
 *fill*         0x3ffe873c        0x4 
 .rodata        0x3ffe8740       0x5c ../lib\liblwip.a(tcp.o)
                0x3ffe8740                tcp_pcb_lists
                0x3ffe8750                tcp_persist_backoff
                0x3ffe8760                tcp_backoff
                0x3ffe8770                tcp_state_str
 *fill*         0x3ffe879c        0x4 
 .rodata        0x3ffe87a0       0x40 ../lib\liblwip.a(sockets.o)
 .rodata        0x3ffe87e0       0x22 user/.output/eagle/lib/libuser.a(user_main.o)
                0x3ffe87e0                streamPort
                0x3ffe87e4                streamPath
                0x3ffe87f0                streamHost
 *fill*         0x3ffe8802        0x2 
 .rodata        0x3ffe8804        0x8 mad/.output/eagle/lib/libmad.a(timer.o)
                0x3ffe8804                mad_timer_zero
 .rodata        0x3ffe880c      0x2e6 mad/.output/eagle/lib/libmad.a(layer3.o)
 *fill*         0x3ffe8af2        0x2 
 .rodata        0x3ffe8af4        0x8 mad/.output/eagle/lib/libmad.a(huffman.o)
                0x3ffe8af4                mad_huff_quad_table
 *fill*         0x3ffe8afc        0x4 
 .rodata        0x3ffe8b00        0xc ../lib\libmphy.a(phy_chip_v5_ana_romfunc.o)
 *fill*         0x3ffe8b0c        0x4 
 .rodata        0x3ffe8b10       0x10 ../lib\libmphy.a(phy_chip_v5_romfunc.o)
 .rodata        0x3ffe8b20        0x8 ../lib\libmphy.a(phy_chip_v6.o)
 .rodata        0x3ffe8b28        0x8 ../lib\libmphy.a(phy_chip_v6_ana.o)
 .rodata        0x3ffe8b30        0x8 ../lib\libnet80211.a(ieee80211.o)
                0x3ffe8b30                ieee80211_opcap
 .rodata        0x3ffe8b38        0x4 ../lib\libnet80211.a(ieee80211_hostap.o)
 .rodata        0x3ffe8b3c        0x4 ../lib\libnet80211.a(ieee80211_output.o)
 .rodata        0x3ffe8b40       0x70 ../lib\libnet80211.a(ieee80211_proto.o)
 .rodata        0x3ffe8bb0        0x8 ../lib\libnet80211.a(wl_cnx.o)
 .rodata        0x3ffe8bb8        0x6 ../lib\libwpa.a(ap_config.o)
 *fill*         0x3ffe8bbe        0x2 
 .rodata        0x3ffe8bc0       0x14 ../lib\libwpa.a(wpa_auth.o)
 *fill*         0x3ffe8bd4        0x4 
 .rodata        0x3ffe8bd8        0x8 ../lib\libwpa.a(wpa.o)
 .rodata        0x3ffe8be0        0xc ../lib\libwpa.a(wpa_common.o)
 .rodata        0x3ffe8bec        0x2 ../lib\libwpa.a(sha1-internal.o)
 *fill*         0x3ffe8bee        0x2 
 .rodata        0x3ffe8bf0        0xa ../lib\libwpa.a(aes-internal.o)
                0x3ffe8bf0                rcons
 *fill*         0x3ffe8bfa        0x6 
 .rodata        0x3ffe8c00      0x101 ../lib\libmain.a(libc.o)
                0x3ffe8c00                _ctype_
 *fill*         0x3ffe8d01        0x3 
 .rodata        0x3ffe8d04      0x100 ../lib\libmgcc.a(_popcount_tab.o)
                0x3ffe8d04                __popcount_tab
 *(.rodata.*)
 .rodata.str1.4
                0x3ffe8e04      0x159 ../lib\libmain.a(app_main.o)
                                0x15d (size before relaxing)
 *fill*         0x3ffe8f5d        0x3 
 .rodata.str1.4
                0x3ffe8f60       0x77 ../lib\libmain.a(ets_timer.o)
 *fill*         0x3ffe8fd7        0x1 
 .rodata.str1.4
                0x3ffe8fd8        0x7 ../lib\libmain.a(printf-stdarg.o)
                                  0xc (size before relaxing)
 *fill*         0x3ffe8fdf        0x1 
 .rodata.str1.4
                0x3ffe8fe0      0x197 ../lib\libmain.a(user_interface.o)
                                0x1a2 (size before relaxing)
 *fill*         0x3ffe9177        0x1 
 .rodata.str1.4
                0x3ffe9178       0x3f ../lib\libmain.a(timers.o)
 *fill*         0x3ffe91b7        0x1 
 .rodata.str1.4
                0x3ffe91b8       0x20 ../lib\libfreertos.a(port.o)
 .rodata.str1.4
                0x3ffe91d8       0x2e ../lib\libfreertos.a(tasks.o)
 *fill*         0x3ffe9206        0x2 
 .rodata.str1.4
                0x3ffe9208       0x2d ../lib\libfreertos.a(timers.o)
 *fill*         0x3ffe9235        0x3 
 .rodata.str1.4
                0x3ffe9238        0xf ../lib\liblwip.a(dns.o)
 *fill*         0x3ffe9247        0x1 
 .rodata.str1.4
                0x3ffe9248       0x16 ../lib\liblwip.a(sys_arch.o)
 *fill*         0x3ffe925e        0x2 
 .rodata.str1.4
                0x3ffe9260       0x53 ../lib\liblwip.a(tcpip.o)
 *fill*         0x3ffe92b3        0x1 
 .rodata.str1.4
                0x3ffe92b4       0x76 ../lib\liblwip.a(tcp.o)
 .rodata.str1.1
                0x3ffe932a      0x1e1 user/.output/eagle/lib/libuser.a(user_main.o)
 .rodata.str1.1
                0x3ffe950b      0x116 user/.output/eagle/lib/libuser.a(iram_buf.o)
 .rodata.str1.1
                0x3ffe9621      0x215 mad/.output/eagle/lib/libmad.a(stream.o)
 .rodata.str1.1
                0x3ffe9836       0x14 driver/.output/eagle/lib/libdriver.a(uart.o)
 *fill*         0x3ffe984a        0x2 
 .rodata.str1.4
                0x3ffe984c       0x22 ../lib\libmphy.a(phy_chip_v5_romfunc.o)
 *fill*         0x3ffe986e        0x2 
 .rodata.str1.4
                0x3ffe9870       0xf4 ../lib\libmphy.a(phy_chip_v6.o)
                                 0xf8 (size before relaxing)
 .rodata.str1.4
                0x3ffe9964       0x1f ../lib\libmphy.a(phy_chip_v6_ana.o)
                                 0x25 (size before relaxing)
 *fill*         0x3ffe9983        0x1 
 .rodata.str1.4
                0x3ffe9984      0x168 ../lib\libmphy.a(phy_chip_v6_cal.o)
 .rodata.str1.4
                0x3ffe9aec       0xbd ../lib\libmphy.a(phy_chip_v5_cal_romfunc.o)
                                 0xe5 (size before relaxing)
 *fill*         0x3ffe9ba9        0x3 
 .rodata.str1.4
                0x3ffe9bac       0x2b ../lib\libpp.a(lmac.o)
                                 0x33 (size before relaxing)
 *fill*         0x3ffe9bd7        0x1 
 .rodata.str1.4
                0x3ffe9bd8      0x1c3 ../lib\libpp.a(pm.o)
                                0x1df (size before relaxing)
 *fill*         0x3ffe9d9b        0x1 
 .rodata.str1.4
                0x3ffe9d9c       0x74 ../lib\libpp.a(pp.o)
                                 0x7c (size before relaxing)
 .rodata.str1.4
                0x3ffe9e10       0x39 ../lib\libpp.a(trc.o)
 *fill*         0x3ffe9e49        0x3 
 .rodata.str1.4
                0x3ffe9e4c        0x7 ../lib\libpp.a(wdev.o)
                                  0xf (size before relaxing)
 *fill*         0x3ffe9e53        0x1 
 .rodata.str1.4
                0x3ffe9e54       0x44 ../lib\libpp.a(if_hwctrl.o)
 .rodata.str1.4
                0x3ffe9e98       0x3f ../lib\libnet80211.a(ieee80211.o)
                                 0x4a (size before relaxing)
 *fill*         0x3ffe9ed7        0x1 
 .rodata.str1.4
                0x3ffe9ed8       0x19 ../lib\libnet80211.a(ieee80211_ht.o)
 *fill*         0x3ffe9ef1        0x3 
 .rodata.str1.4
                0x3ffe9ef4       0x27 ../lib\libnet80211.a(ieee80211_output.o)
                                 0x2f (size before relaxing)
 *fill*         0x3ffe9f1b        0x1 
 .rodata.str1.4
                0x3ffe9f1c       0x24 ../lib\libnet80211.a(ieee80211_scan.o)
 .rodata.str1.4
                0x3ffe9f40       0x99 ../lib\libnet80211.a(wl_cnx.o)
 *fill*         0x3ffe9fd9        0x3 
 .rodata.str1.4
                0x3ffe9fdc       0x3c ../lib\libwpa.a(wpa_auth.o)
                                 0x43 (size before relaxing)
 .rodata.str1.4
                0x00000000       0x17 ../lib\libwpa.a(wpa.o)
 .rodata.str1.4
                0x3ffea018        0x9 ../lib\libwpa.a(wpa_common.o)
 *fill*         0x3ffea021        0x3 
 .rodata.str1.4
                0x3ffea024       0x36 ../lib\libwpa.a(wpa_main.o)
 *fill*         0x3ffea05a        0x2 
 .rodata.str1.4
                0x3ffea05c        0x4 ../lib\libwpa.a(sha1-internal.o)
                                  0x2 (size before relaxing)
 *(.gnu.linkonce.r.*)
 *(.rodata1)
                0x3ffea060                __XT_EXCEPTION_TABLE__ = ABSOLUTE (.)
 *(.xt_except_table)
 *(.gcc_except_table)
 *(.gnu.linkonce.e.*)
 *(.gnu.version_r)
 *(.eh_frame)
 *crtbegin.o(.ctors)
 *(EXCLUDE_FILE(*crtend.o) .ctors)
 *(SORT(.ctors.*))
 *(.ctors)
 *crtbegin.o(.dtors)
 *(EXCLUDE_FILE(*crtend.o) .dtors)
 *(SORT(.dtors.*))
 *(.dtors)
                0x3ffea060                __XT_EXCEPTION_DESCS__ = ABSOLUTE (.)
 *(.xt_except_desc)
 *(.gnu.linkonce.h.*)
                0x3ffea060                __XT_EXCEPTION_DESCS_END__ = ABSOLUTE (.)
 *(.xt_except_desc_end)
 *(.dynamic)
 *(.gnu.version_d)
                0x3ffea060                . = ALIGN (0x4)
                0x3ffea060                _bss_table_start = ABSOLUTE (.)
                0x3ffea060        0x4 LONG 0x3ffea068 _bss_start
                0x3ffea064        0x4 LONG 0x3fff5f08 _bss_end
                0x3ffea068                _bss_table_end = ABSOLUTE (.)
                0x3ffea068                _rodata_end = ABSOLUTE (.)

.UserExceptionVector.literal
                0x3ffea068        0x0
                0x3ffea068                _UserExceptionVector_literal_start = ABSOLUTE (.)
 *(.UserExceptionVector.literal)
 .UserExceptionVector.literal
                0x3ffea068        0x0 ../lib\libmain.a(xtensa_vectors.o)
                0x3ffea068                _UserExceptionVector_literal_end = ABSOLUTE (.)

.bss            0x3ffea068     0xbea0
                0x3ffea068                . = ALIGN (0x8)
                0x3ffea068                _bss_start = ABSOLUTE (.)
 *(.dynsbss)
 *(.sbss)
 *(.sbss.*)
 *(.gnu.linkonce.sb.*)
 *(.scommon)
 *(.sbss2)
 *(.sbss2.*)
 *(.gnu.linkonce.sb2.*)
 *(.dynbss)
 *(.bss)
 *fill*         0x3ffea068        0x8 
 .bss           0x3ffea070      0x340 ../lib\libmain.a(xtensa_vectors.o)
 .bss           0x3ffea3b0       0x30 ../lib\libmain.a(app_main.o)
                0x3ffea3b0                user_init_flag
                0x3ffea3b4                info
                0x3ffea3d8                xUserTaskHandle
                0x3ffea3dc                xWatchDogTaskHandle
 .bss           0x3ffea3e0       0x40 ../lib\libmain.a(ets_timer.o)
                0x3ffea3e4                timer_list
                0x3ffea3e8                debug_timer
                0x3ffea3ec                debug_timerfn
 .bss           0x3ffea420        0x4 ../lib\libmain.a(misc.o)
                0x3ffea420                _putc1
 .bss           0x3ffea424        0x0 ../lib\libmain.a(printf-stdarg.o)
 .bss           0x3ffea424        0x1 ../lib\libmain.a(spi_flash.o)
                0x3ffea424                FlashIsOnGoing
 .bss           0x3ffea425        0x0 ../lib\libmain.a(uart.o)
 *fill*         0x3ffea425        0xb 
 .bss           0x3ffea430      0x131 ../lib\libmain.a(user_interface.o)
                0x3ffea529                cpu_overclock
                0x3ffea52c                rst_if
                0x3ffea54c                promiscuous_cb
 .bss           0x3ffea561        0x0 ../lib\libmain.a(os_cpu_a.o)
 .bss           0x3ffea561        0x0 ../lib\libmain.a(xtensa_context.o)
 *fill*         0x3ffea561        0x3 
 .bss           0x3ffea564        0x5 ../lib\libmain.a(timers.o)
 *fill*         0x3ffea569        0x3 
 .bss           0x3ffea56c       0x1c ../lib\libfreertos.a(heap_4.o)
 *fill*         0x3ffea588        0x8 
 .bss           0x3ffea590       0x50 ../lib\libfreertos.a(port.o)
                0x3ffea594                cpu_sr
                0x3ffea5a0                isr
 .bss           0x3ffea5e0        0x0 ../lib\libfreertos.a(queue.o)
 .bss           0x3ffea5e0      0x1cc ../lib\libfreertos.a(tasks.o)
                0x3ffea5e4                pxCurrentTCB
 .bss           0x3ffea7ac       0x3c ../lib\libfreertos.a(timers.o)
 .bss           0x3ffea7e8        0x0 ../lib\libfreertos.a(list.o)
 *fill*         0x3ffea7e8        0x8 
 .bss           0x3ffea7f0       0x38 ../lib\liblwip.a(dhcp.o)
                0x3ffea7f0                dhcp_rx_options_given
                0x3ffea800                dhcp_rx_options_val
 *fill*         0x3ffea828        0x8 
 .bss           0x3ffea830      0x690 ../lib\liblwip.a(dns.o)
 .bss           0x3ffeaec0       0xd8 ../lib\liblwip.a(etharp.o)
 *fill*         0x3ffeaf98        0x8 
 .bss           0x3ffeafa0       0x10 ../lib\liblwip.a(ip4_addr.o)
 .bss           0x3ffeafb0       0x16 ../lib\liblwip.a(ip4.o)
                0x3ffeafb0                ip_data
 .bss           0x3ffeafc6        0x0 ../lib\liblwip.a(ip_frag.o)
 .bss           0x3ffeafc6        0x0 ../lib\liblwip.a(memp.o)
 *fill*         0x3ffeafc6        0x2 
 .bss           0x3ffeafc8        0xc ../lib\liblwip.a(netif.o)
                0x3ffeafcc                netif_list
                0x3ffeafd0                netif_default
 .bss           0x3ffeafd4        0x1 ../lib\liblwip.a(pbuf.o)
                0x3ffeafd4                pbuf_free_ooseq_pending
 *fill*         0x3ffeafd5        0x3 
 .bss           0x3ffeafd8        0x4 ../lib\liblwip.a(raw.o)
 .bss           0x3ffeafdc       0xba ../lib\liblwip.a(stats.o)
                0x3ffeafdc                lwip_stats
 *fill*         0x3ffeb096        0x2 
 .bss           0x3ffeb098        0x4 ../lib\liblwip.a(sys_arch.o)
                0x3ffeb098                intlevel
 .bss           0x3ffeb09c       0x2c ../lib\liblwip.a(tcp_in.o)
                0x3ffeb0c4                tcp_input_pcb
 .bss           0x3ffeb0c8       0x14 ../lib\liblwip.a(tcpip.o)
                0x3ffeb0d8                xLwipTaskHandle
 .bss           0x3ffeb0dc       0x21 ../lib\liblwip.a(tcp.o)
                0x3ffeb0e0                tcp_active_pcbs
                0x3ffeb0e4                tcp_tmp_pcb
                0x3ffeb0e8                tcp_active_pcbs_changed
                0x3ffeb0ec                tcp_tw_pcbs
                0x3ffeb0f0                tcp_bound_pcbs
                0x3ffeb0f4                tcp_listen_pcbs
                0x3ffeb0f8                tcp_ticks
 .bss           0x3ffeb0fd        0x0 ../lib\liblwip.a(tcp_out.o)
 *fill*         0x3ffeb0fd        0x3 
 .bss           0x3ffeb100        0xc ../lib\liblwip.a(timers.o)
                0x3ffeb104                LwipTimOutLim
 .bss           0x3ffeb10c        0x4 ../lib\liblwip.a(udp.o)
                0x3ffeb10c                udp_pcbs
 .bss           0x3ffeb110        0x0 ../lib\liblwip.a(icmp.o)
 .bss           0x3ffeb110        0x0 ../lib\liblwip.a(inet_chksum.o)
 .bss           0x3ffeb110        0x0 ../lib\liblwip.a(init.o)
 .bss           0x3ffeb110       0x70 ../lib\liblwip.a(sockets.o)
 .bss           0x3ffeb180        0x0 ../lib\liblwip.a(api_lib.o)
 .bss           0x3ffeb180        0x0 ../lib\liblwip.a(api_msg.o)
 .bss           0x3ffeb180        0x0 ../lib\liblwip.a(netbuf.o)
 .bss           0x3ffeb180      0x856 user/.output/eagle/lib/libuser.a(user_main.o)
 *fill*         0x3ffeb9d6        0x2 
 .bss           0x3ffeb9d8       0x20 user/.output/eagle/lib/libuser.a(spiram_fifo.o)
 .bss           0x3ffeb9f8        0x0 user/.output/eagle/lib/libuser.a(iram_buf.o)
 .bss           0x3ffeb9f8        0x0 mad/.output/eagle/lib/libmad.a(stream.o)
 .bss           0x3ffeb9f8        0x0 mad/.output/eagle/lib/libmad.a(synth.o)
 .bss           0x3ffeb9f8        0x0 mad/.output/eagle/lib/libmad.a(bit.o)
 .bss           0x3ffeb9f8        0x0 mad/.output/eagle/lib/libmad.a(frame.o)
 .bss           0x3ffeb9f8        0x0 mad/.output/eagle/lib/libmad.a(timer.o)
 .bss           0x3ffeb9f8        0x0 mad/.output/eagle/lib/libmad.a(align.o)
 .bss           0x3ffeb9f8     0x1200 mad/.output/eagle/lib/libmad.a(layer3.o)
 .bss           0x3ffecbf8        0x0 mad/.output/eagle/lib/libmad.a(huffman.o)
 .bss           0x3ffecbf8        0x0 driver/.output/eagle/lib/libdriver.a(uart.o)
 .bss           0x3ffecbf8       0xf0 driver/.output/eagle/lib/libdriver.a(i2s_freertos.o)
 .bss           0x3ffecce8        0x0 ../lib\libmc.a(lib_a-bzero.o)
 .bss           0x3ffecce8        0x0 ../lib\libmc.a(lib_a-memcmp.o)
 .bss           0x3ffecce8        0x0 ../lib\libmc.a(lib_a-memmove.o)
 .bss           0x3ffecce8        0x0 ../lib\libmc.a(lib_a-strcmp.o)
 .bss           0x3ffecce8        0x0 ../lib\libmc.a(lib_a-strcpy.o)
 .bss           0x3ffecce8        0x0 ../lib\libmc.a(lib_a-strncmp.o)
 .bss           0x3ffecce8        0x0 c:/espressif/xtensa-lx106-elf/bin/../lib/gcc/xtensa-lx106-elf/4.8.2/../../../../xtensa-lx106-elf/lib\libhal.a(clock.o)
 .bss           0x3ffecce8        0x0 c:/espressif/xtensa-lx106-elf/bin/../lib/gcc/xtensa-lx106-elf/4.8.2/../../../../xtensa-lx106-elf/lib\libhal.a(int_asm--set_intset.o)
 .bss           0x3ffecce8        0x0 ../lib\libmphy.a(phy_chip_v5_ana_romfunc.o)
 .bss           0x3ffecce8        0x0 ../lib\libmphy.a(phy_chip_v5_romfunc.o)
 .bss           0x3ffecce8        0x4 ../lib\libmphy.a(phy.o)
 *fill*         0x3ffeccec        0x4 
 .bss           0x3ffeccf0      0x3ab ../lib\libmphy.a(phy_chip_v6.o)
                0x3ffeccf0                rxiq_compute_num
                0x3ffeccf4                rxdc_init_flag
                0x3ffeccf8                check_result
                0x3ffeccfc                chip6_sleep_params
                0x3ffecee0                chip6_phy_init_ctrl
                0x3ffecf54                phy_freq_offset
                0x3ffecf56                do_pwctrl_flag
                0x3ffecf57                pwctrl_debug
                0x3ffecf58                txbk_dpdby_flag
                0x3ffecf5a                sw_scan_mode
                0x3ffecf6c                periodic_cal_dc_num
                0x3ffecf70                periodic_cal_flag
                0x3ffecf71                bbpll_cal_flag
                0x3ffecf72                phy_in_most_power
                0x3ffecf73                deep_sleep_en
                0x3ffecf74                rtc_mem_check_fail
                0x3ffecf75                rtc_recovery_en
                0x3ffecf76                phy_in_vdd33_offset
                0x3ffecf77                phy_set_most_tpw_disbg
                0x3ffecf78                phy_set_most_tpw_index
                0x3ffecf7c                adc_rand_noise
                0x3ffecf80                dpd_bypass_original
                0x3ffecf88                noise_array
                0x3ffed090                tx_pwctrl_atten_init
 .bss           0x3ffed09b        0x0 ../lib\libmphy.a(phy_chip_v6_ana.o)
 *fill*         0x3ffed09b        0x1 
 .bss           0x3ffed09c        0x6 ../lib\libmphy.a(phy_chip_v6_cal.o)
                0x3ffed09c                loop_pwctrl_pwdet_error_accum_high_power
                0x3ffed09e                tx_pwctrl_pk_num
                0x3ffed09f                loop_pwctrl_correct_atten_high_power
                0x3ffed0a0                tx_pwctrl_set_chan_flag
                0x3ffed0a1                rxiq_cover_fail_num
 *fill*         0x3ffed0a2        0x2 
 .bss           0x3ffed0a4        0x7 ../lib\libmphy.a(phy_sleep.o)
                0x3ffed0a4                periodic_cal_sat
                0x3ffed0a6                lslp_mem_opt_8266
                0x3ffed0a8                software_slp_reject
                0x3ffed0a9                SDIO_slp_reject
                0x3ffed0aa                hardware_reject
 .bss           0x3ffed0ab        0x0 ../lib\libmphy.a(phy_chip_v5_cal_romfunc.o)
 *fill*         0x3ffed0ab        0x5 
 .bss           0x3ffed0b0      0x150 ../lib\libpp.a(lmac.o)
                0x3ffed0b4                lmacConfMib
 .bss           0x3ffed200      0x13a ../lib\libpp.a(pm.o)
                0x3ffed2fc                CCOMPARE_AddVal
 *fill*         0x3ffed33a        0x6 
 .bss           0x3ffed340      0x352 ../lib\libpp.a(pp.o)
                0x3ffed368                pend_flag_noise_check
                0x3ffed370                pend_flag_periodic_cal
                0x3ffed390                idle_timer_reopen_flag
                0x3ffed398                dbg_stop_sw_wdt
                0x3ffed399                dbg_stop_hw_wdt
 *fill*         0x3ffed692        0xe 
 .bss           0x3ffed6a0      0x100 ../lib\libpp.a(rate_control.o)
 .bss           0x3ffed7a0      0x268 ../lib\libpp.a(trc.o)
 *fill*         0x3ffeda08        0x8 
 .bss           0x3ffeda10     0x56d1 ../lib\libpp.a(wdev.o)
                0x3ffeda10                wDevCtrl
                0x3ffedbb4                NMIIrqIsOn
                0x3ffedbb8                WdevTimOffSet
 *fill*         0x3fff30e1        0xf 
 .bss           0x3fff30f0     0x123c ../lib\libpp.a(esf_buf.o)
 *fill*         0x3fff432c        0x4 
 .bss           0x3fff4330       0x30 ../lib\libpp.a(if_hwctrl.o)
                0x3fff4330                interface_mask
                0x3fff4340                if_ctrl
 .bss           0x3fff4360      0x54c ../lib\libnet80211.a(ieee80211.o)
                0x3fff4360                g_ic
                0x3fff48a8                xieee80211Queue
 .bss           0x3fff48ac        0x0 ../lib\libnet80211.a(ieee80211_crypto.o)
 .bss           0x3fff48ac        0x0 ../lib\libnet80211.a(ieee80211_ets.o)
 .bss           0x3fff48ac       0x28 ../lib\libnet80211.a(ieee80211_hostap.o)
                0x3fff48cc                TmpSTAAPCloseAP
                0x3fff48cd                PendFreeBcnEb
 .bss           0x3fff48d4        0x0 ../lib\libnet80211.a(ieee80211_ht.o)
 .bss           0x3fff48d4        0x0 ../lib\libnet80211.a(ieee80211_input.o)
 .bss           0x3fff48d4        0x0 ../lib\libnet80211.a(ieee80211_output.o)
 .bss           0x3fff48d4        0x0 ../lib\libnet80211.a(ieee80211_phy.o)
 .bss           0x3fff48d4        0x0 ../lib\libnet80211.a(ieee80211_power.o)
 .bss           0x3fff48d4        0x0 ../lib\libnet80211.a(ieee80211_proto.o)
 .bss           0x3fff48d4       0xe4 ../lib\libnet80211.a(ieee80211_scan.o)
                0x3fff48d4                gScanStruct
                0x3fff4998                auth_type
                0x3fff499a                scannum
 .bss           0x3fff49b8        0x0 ../lib\libnet80211.a(ieee80211_sta.o)
 .bss           0x3fff49b8       0x44 ../lib\libnet80211.a(wl_chm.o)
 *fill*         0x3fff49fc        0x4 
 .bss           0x3fff4a00      0x780 ../lib\libnet80211.a(wl_cnx.o)
                0x3fff5160                sta_con_timer
                0x3fff517c                g_cnx_probe_rc_list_cb
 .bss           0x3fff5180        0x0 ../lib\libnet80211.a(ieee80211_action.o)
 .bss           0x3fff5180        0x0 ../lib\libwpa.a(ap_config.o)
 .bss           0x3fff5180        0x0 ../lib\libwpa.a(common.o)
 .bss           0x3fff5180        0x0 ../lib\libwpa.a(os_xtensa.o)
 .bss           0x3fff5180        0x0 ../lib\libwpa.a(sha1-pbkdf2.o)
 .bss           0x3fff5180        0x0 ../lib\libwpa.a(wpa_auth.o)
 .bss           0x3fff5180        0x0 ../lib\libwpa.a(wpa_auth_ie.o)
 .bss           0x3fff5180      0x27a ../lib\libwpa.a(wpa.o)
 .bss           0x3fff53fa        0x0 ../lib\libwpa.a(wpa_common.o)
 .bss           0x3fff53fa        0x0 ../lib\libwpa.a(wpa_debug.o)
 .bss           0x3fff53fa        0x0 ../lib\libwpa.a(wpa_ie.o)
 .bss           0x3fff53fa        0x0 ../lib\libwpa.a(wpa_main.o)
 .bss           0x3fff53fa        0x0 ../lib\libwpa.a(wpas_glue.o)
 .bss           0x3fff53fa        0x0 ../lib\libwpa.a(aes-unwrap.o)
 .bss           0x3fff53fa        0x0 ../lib\libwpa.a(aes-wrap.o)
 .bss           0x3fff53fa        0x0 ../lib\libwpa.a(md5.o)
 .bss           0x3fff53fa        0x0 ../lib\libwpa.a(md5-internal.o)
 .bss           0x3fff53fa        0x0 ../lib\libwpa.a(rc4.o)
 .bss           0x3fff53fa        0x0 ../lib\libwpa.a(sha1.o)
 .bss           0x3fff53fa        0x0 ../lib\libwpa.a(sha1-internal.o)
 *fill*         0x3fff53fa        0x6 
 .bss           0x3fff5400       0xb0 ../lib\libwpa.a(aes-internal-dec.o)
 .bss           0x3fff54b0        0x0 ../lib\libwpa.a(aes-internal-enc.o)
 .bss           0x3fff54b0        0x0 ../lib\libwpa.a(aes-internal.o)
 .bss           0x3fff54b0        0x4 ../lib\libmain.a(libc.o)
 .bss           0x3fff54b4        0x0 ../lib\liblwip.a(ethernetif.o)
 *fill*         0x3fff54b4        0x4 
 .bss           0x3fff54b8       0x2c ../lib\liblwip.a(netdb.o)
                0x3fff54b8                h_errno
 .bss           0x3fff54e4        0x0 main/.output/eagle/lib/libaddmmain.a(phy_chip_v6_unused.o)
 .bss           0x3fff54e4        0x0 ../lib\libmc.a(lib_a-strncpy.o)
 .bss           0x3fff54e4        0x0 ../lib\libmgcc.a(_ashrdi3.o)
 .bss           0x3fff54e4        0x0 ../lib\libmgcc.a(_divsf3.o)
 .bss           0x3fff54e4        0x0 ../lib\libmgcc.a(_fixsfsi.o)
 .bss           0x3fff54e4        0x0 ../lib\libmgcc.a(_modsi3.o)
 .bss           0x3fff54e4        0x0 ../lib\libmgcc.a(_popcountsi2.o)
 .bss           0x3fff54e4        0x0 ../lib\libmgcc.a(_popcount_tab.o)
 .bss           0x3fff54e4        0x0 ../lib\libnet80211.a(ieee80211_crypto_ccmp.o)
 *fill*         0x3fff54e4        0x4 
 .bss           0x3fff54e8        0x8 ../lib\libnet80211.a(ieee80211_crypto_tkip.o)
 .bss           0x3fff54f0        0x0 ../lib\libnet80211.a(ieee80211_crypto_wep.o)
 *(.bss.*)
 *(.gnu.linkonce.b.*)
 *(COMMON)
 COMMON         0x3fff54f0        0x8 user/.output/eagle/lib/libuser.a(iram_buf.o)
                0x3fff54f0                eraminfo
 COMMON         0x3fff54f8      0xa07 mad/.output/eagle/lib/libmad.a(stream.o)
                0x3fff54f8                MainData
 *fill*         0x3fff5eff        0x1 
 COMMON         0x3fff5f00        0x8 driver/.output/eagle/lib/libdriver.a(uart.o)
                0x3fff5f00                xUartTaskHandle
                0x3fff5f04                xQueueUart
                0x3fff5f08                . = ALIGN (0x8)
                0x3fff5f08                _bss_end = ABSOLUTE (.)
                0x3fff5f08                _heap_start = ABSOLUTE (.)

.text           0x40100000     0x6a65
                0x40100000                _stext = .
                0x40100000                _text_start = ABSOLUTE (.)
 *(.UserEnter.text)
 .UserEnter.text
                0x40100000        0xd ../lib\libmain.a(xtensa_vectors.o)
                                 0x14 (size before relaxing)
                0x40100004                call_user_start
                0x40100010                . = ALIGN (0x10)
 *fill*         0x4010000d        0x3 
 *(.DebugExceptionVector.text)
 .DebugExceptionVector.text
                0x40100010        0x9 ../lib\libmain.a(xtensa_vectors.o)
                                 0x10 (size before relaxing)
                0x40100010                _DebugExceptionVector
                0x40100020                . = ALIGN (0x10)
 *fill*         0x40100019        0x7 
 *(.NMIExceptionVector.text)
 .NMIExceptionVector.text
                0x40100020        0x6 ../lib\libmain.a(xtensa_vectors.o)
                                  0xd (size before relaxing)
                0x40100020                _NMIExceptionVector
                0x40100030                . = ALIGN (0x10)
 *fill*         0x40100026        0xa 
 *(.KernelExceptionVector.text)
 .KernelExceptionVector.text
                0x40100030        0x6 ../lib\libmain.a(xtensa_vectors.o)
                                  0xd (size before relaxing)
                0x40100030                _KernelExceptionVector
                0x40100036        0x4 LONG 0x0
                0x4010003a        0x4 LONG 0x0
                0x4010003e        0x4 LONG 0x0
                0x40100042        0x4 LONG 0x0
                0x40100050                . = ALIGN (0x10)
 *fill*         0x40100046        0xa 
 *(.UserExceptionVector.text)
 .UserExceptionVector.text
                0x40100050        0x6 ../lib\libmain.a(xtensa_vectors.o)
                                  0xd (size before relaxing)
                0x40100050                _UserExceptionVector
                0x40100056        0x4 LONG 0x0
                0x4010005a        0x4 LONG 0x0
                0x4010005e        0x4 LONG 0x0
                0x40100062        0x4 LONG 0x0
                0x40100070                . = ALIGN (0x10)
 *fill*         0x40100066        0xa 
 *(.DoubleExceptionVector.text)
 .DoubleExceptionVector.text
                0x40100070        0x9 ../lib\libmain.a(xtensa_vectors.o)
                                 0x10 (size before relaxing)
                0x40100070                _DoubleExceptionVector
                0x40100079        0x4 LONG 0x0
                0x4010007d        0x4 LONG 0x0
                0x40100081        0x4 LONG 0x0
                0x40100085        0x4 LONG 0x0
                0x40100090                . = ALIGN (0x10)
 *fill*         0x40100089        0x7 
 *(.entry.text)
 *(.init.literal)
 *(.init)
 *(.literal .text .literal.* .text.* .stub .gnu.warning .gnu.linkonce.literal.* .gnu.linkonce.t.*.literal .gnu.linkonce.t.*)
 .text          0x40100090      0x19b ../lib\libmain.a(xtensa_vectors.o)
                                0x1c7 (size before relaxing)
                0x40100090                _xt_panic
                0x40100138                _xt_user_exit
 *fill*         0x4010022b        0x1 
 .text          0x4010022c      0x3b6 ../lib\libmain.a(app_main.o)
                                0x3f6 (size before relaxing)
                0x40100360                user_fatal_exception_handler
                0x40100450                user_start
                0x40100598                vApplicationStackOverflowHook
                0x401005c4                vApplicationTickHook
 *fill*         0x401005e2        0x2 
 .text          0x401005e4        0xb ../lib\libmain.a(misc.o)
                0x401005e8                os_get_cpu_frequency
 *fill*         0x401005ef        0x1 
 .text          0x401005f0      0x5a4 ../lib\libmain.a(printf-stdarg.o)
                                0x5d0 (size before relaxing)
                0x401009f4                printf
                0x401009f4                ets_printf
                0x40100a88                sprintf
                0x40100b28                snprintf
                0x40100b58                puts
                0x40100b70                putchar
                0x40100b90                __write
 .text          0x40100b94      0x43c ../lib\libmain.a(spi_flash.o)
                                0x548 (size before relaxing)
                0x40100bb4                SPIReadModeCnfig
                0x40100c38                SPIWrite
                0x40100d0c                SPIRead
                0x40100d3c                SPIEraseSector
                0x40100d90                spi_flash_get_id
                0x40100e0c                spi_flash_read_status
                0x40100e5c                spi_flash_write_status
                0x40100eac                spi_flash_erase_sector
                0x40100efc                spi_flash_write
                0x40100f70                spi_flash_read
 .text          0x40100fd0      0x238 ../lib\libmain.a(user_interface.o)
                                0x284 (size before relaxing)
                0x40100ff0                system_restart_in_nmi
                0x40101160                system_rtc_mem_write
                0x401011b4                system_rtc_mem_read
 .text          0x40101208      0x173 ../lib\libmain.a(os_cpu_a.o)
                                0x1b3 (size before relaxing)
                0x40101208                vPortYield
                0x40101244                _xt_int_enter
                0x4010125c                _xt_int_exit
                0x40101284                _xt_timer_int
                0x401012b8                _xt_timer_int1
                0x401012d4                _xt_tick_timer_init
                0x401012f8                _xt_update_xt_ccompare
                0x40101314                _xt_set_xt_ccompare_val
                0x4010132c                _xt_isr_unmask
                0x40101344                _xt_isr_mask
                0x4010135c                _xt_read_ints
                0x4010136c                _xt_clear_ints
 *fill*         0x4010137b        0x1 
 .text          0x4010137c      0x2c1 ../lib\libfreertos.a(heap_4.o)
                                0x32d (size before relaxing)
                0x40101388                pvPortMalloc
                0x40101388                malloc
                0x40101494                vPortFree
                0x40101494                free
                0x40101528                calloc
                0x40101528                pvPortCalloc
                0x40101550                pvPortZalloc
                0x40101550                zalloc
                0x40101564                realloc
                0x40101564                pvPortRealloc
                0x4010159c                xPortGetFreeHeapSize
                0x401015a4                vPortInitialiseBlocks
 *fill*         0x4010163d        0x3 
 .text          0x40101640      0x1df ../lib\libfreertos.a(port.o)
                                0x23b (size before relaxing)
                0x40101644                PendSV
                0x40101698                SoftIsrHdl
                0x401016dc                xPortSysTickHandle
                0x401016f4                vPortEnterCritical
                0x40101718                vPortExitCritical
                0x40101740                PortDisableInt_NoNest
                0x40101764                PortEnableInt_NoNest
                0x40101798                _xt_isr_attach
                0x401017a4                _xt_isr_handler
 *fill*         0x4010181f        0x1 
 .text          0x40101820      0x1fb ../lib\libfreertos.a(queue.o)
                                0x213 (size before relaxing)
                0x40101824                xQueueGenericSendFromISR
                0x40101890                xQueueReceiveFromISR
                0x40101900                xQueuePeekFromISR
                0x40101930                uxQueueMessagesWaitingFromISR
                0x401019f8                xQueueIsQueueEmptyFromISR
                0x40101a08                xQueueIsQueueFullFromISR
 *fill*         0x40101a1b        0x1 
 .text          0x40101a1c      0x295 ../lib\libfreertos.a(tasks.o)
                                0x2ed (size before relaxing)
                0x40101a2c                xTaskIncrementTick
                0x40101b98                vTaskSwitchContext
                0x40101c60                vTaskPriorityDisinherit
 *fill*         0x40101cb1        0x3 
 .text          0x40101cb4       0x2e ../lib\liblwip.a(netbuf.o)
                                 0x32 (size before relaxing)
                0x40101cb8                netbuf_new
 *fill*         0x40101ce2        0x2 
 .text          0x40101ce4       0xca user/.output/eagle/lib/libuser.a(user_main.o)
                                 0xd2 (size before relaxing)
                0x40101d08                render_sample_block
 *fill*         0x40101dae        0x2 
 .text          0x40101db0       0x23 mad/.output/eagle/lib/libmad.a(synth.o)
 *fill*         0x40101dd3        0x1 
 .text          0x40101dd4      0x233 mad/.output/eagle/lib/libmad.a(bit.o)
                                0x263 (size before relaxing)
                0x40101dd4                mad_bit_init
                0x40101de4                mad_bit_length
                0x40101e00                mad_bit_nextbyte
                0x40101e14                mad_bit_skip
                0x40101e4c                mad_bit_read
                0x40101ed4                mad_bit_crc
 *fill*         0x40102007        0x1 
 .text          0x40102008       0x24 mad/.output/eagle/lib/libmad.a(timer.o)
                0x4010200c                mad_timer_abs
 .text          0x4010202c      0x171 driver/.output/eagle/lib/libdriver.a(uart.o)
                                0x185 (size before relaxing)
                0x40102034                uart_tx_one_char
 *fill*         0x4010219d        0x3 
 .text          0x401021a0      0x183 driver/.output/eagle/lib/libdriver.a(i2s_freertos.o)
                                0x1a3 (size before relaxing)
                0x40102228                i2sSetRate
                0x401022d8                i2sPushSample
 *fill*         0x40102323        0x1 
 .literal       0x40102324       0x10 ../lib\libmc.a(lib_a-strcmp.o)
                                 0x20 (size before relaxing)
 .literal       0x40102334        0x0 ../lib\libmc.a(lib_a-strcpy.o)
                                  0xc (size before relaxing)
 .literal       0x40102334        0x0 ../lib\libmc.a(lib_a-strncpy.o)
                                  0xc (size before relaxing)
 .literal       0x40102334        0x8 ../lib\libmgcc.a(_divsf3.o)
                                 0x10 (size before relaxing)
 .literal       0x4010233c        0x0 ../lib\libmgcc.a(_fixsfsi.o)
                                  0x4 (size before relaxing)
 .literal       0x4010233c        0x4 ../lib\libmgcc.a(_popcountsi2.o)
 .text          0x40102340       0xff ../lib\libmc.a(lib_a-strcmp.o)
                0x40102340                strcmp
 *fill*         0x4010243f        0x1 
 .text          0x40102440       0x83 ../lib\libmc.a(lib_a-strcpy.o)
                0x40102440                strcpy
 *fill*         0x401024c3        0x1 
 .text          0x401024c4        0xb ../lib\libmphy.a(phy_chip_v5_romfunc.o)
                0x401024c8                phy_get_romfuncs
 *fill*         0x401024cf        0x1 
 .text          0x401024d0       0x53 ../lib\libmphy.a(phy.o)
                                 0x5f (size before relaxing)
                0x401024d8                register_phy_ops
                0x401024f8                register_get_phy_addr
                0x40102500                phy_change_channel
                0x40102518                phy_get_mactime
 *fill*         0x40102523        0x1 
 .text          0x40102524       0xbf ../lib\libmphy.a(phy_chip_v6_cal.o)
                0x40102524                unsign_to_sign
                0x4010255c                phy_get_bb_freqoffset
 *fill*         0x401025e3        0x1 
 .text          0x401025e4       0xef ../lib\libmphy.a(phy_sleep.o)
                                0x103 (size before relaxing)
                0x401025f0                pm_rtc_clock_cali
                0x401026a8                clockgate_watchdog
 *fill*         0x401026d3        0x1 
 .text          0x401026d4     0x14dc ../lib\libpp.a(lmac.o)
                               0x187c (size before relaxing)
                0x401026d8                lmacIsActive
                0x401026ec                lmacIsIdle
                0x40102b30                lmacSetAcParam
                0x40102bcc                lmacProcessTXStartData
                0x40102d74                lmacProcessTxSuccess
                0x40102ebc                GetAccess
                0x40102ec8                lmacDiscardAgedMSDU
                0x40102edc                lmacRecycleMPDU
                0x401033bc                lmacProcessCollisions
                0x40103418                lmacProcessCollision
                0x4010349c                lmacMSDUAged
                0x40103820                lmacProcessCtsTimeout
                0x40103868                lmacProcessAckTimeout
                0x401038bc                lmacProcessRtsStart
                0x401038c8                lmacProcessTxRtsError
                0x40103960                lmacProcessTxError
                0x401039e4                lmacTxFrame
                0x40103b98                lmacRxDone
 .text          0x40103bb0      0xe60 ../lib\libpp.a(pp.o)
                               0x103c (size before relaxing)
                0x40103be0                pp_soft_wdt_feed
                0x40103cf4                ppProcessTxQ
                0x40103de4                ppFetchTxQFirstAvail
                0x40103e24                ppDequeueTxQ
                0x40103e4c                ppRollBackTxQ
                0x40103e70                ppRecordBarRRC
                0x40103e80                ppTxqUpdateBitmap
                0x40103ea4                ppEnqueueTxDone
                0x40103ed8                ppEnqueueRxq
                0x401046a0                ppDiscardMPDU
                0x401046d0                MacIsrSigPostDefHdl
                0x401047bc                pp_post
                0x401048bc                ppCalTxop
                0x401049a0                ppCalFrameTimes
 .text          0x40104a10       0xf5 ../lib\libpp.a(rate_control.o)
                                0x109 (size before relaxing)
                0x40104a30                RC_GetAckRate
                0x40104a3c                RC_GetRtsRate
                0x40104a4c                RC_GetAckTime
                0x40104a60                RC_GetCtsTime
                0x40104a98                RC_GetBlockAckTime
 *fill*         0x40104b05        0x3 
 .text          0x40104b08      0x7f9 ../lib\libpp.a(trc.o)
                                0x81d (size before relaxing)
                0x40104c80                rcUpdateTxDone
                0x40104d14                rcUpdateRxDone
                0x40104d70                rcUpdateDataRxDone
                0x40104d88                rcGetSched
                0x40104e30                rcGetRate
                0x40105234                rcReachRetryLimit
                0x4010524c                trc_NeedRTS
 *fill*         0x40105301        0x3 
 .text          0x40105304     0x1186 ../lib\libpp.a(wdev.o)
                               0x14a6 (size before relaxing)
                0x40105654                wDev_MacTimSetFunc
                0x40105674                wDev_MacTimArm
                0x40105718                wDev_MacTim1SetFunc
                0x40105734                wDev_MacTim1Arm
                0x40105810                wDev_ProcessFiq
                0x40105bc8                wDev_EnableTransmit
                0x40105c0c                wDev_DisableTransmit
                0x40105c2c                Tx_Copy2Queue
                0x40105c74                wDev_ProcessCollision
                0x40105c98                wDev_GetTxqCollisions
                0x40105ca8                wDev_ClearTxqCollisions
                0x40105cc4                wDev_SetWaitingQueue
                0x40105d10                wDev_ClearWaitingQueue
                0x40105d34                wDev_SetFrameAckType
                0x40105d98                wDev_AppendRxBlocks
                0x40105f40                wDev_AppendRxAmpduLensBlocks
                0x40106078                wDev_GetBAInfo
 *fill*         0x4010648a        0x2 
 .text          0x4010648c       0x94 ../lib\libpp.a(esf_buf.o)
                                 0xb4 (size before relaxing)
                0x40106490                esf_rx_buf_alloc
 .text          0x40106520        0xb ../lib\libnet80211.a(wl_chm.o)
                0x40106524                chm_get_current_channel
 *fill*         0x4010652b        0x1 
 .text          0x4010652c       0x76 ../lib\libmain.a(libc.o)
                                 0x7e (size before relaxing)
                0x40106540                rand_r
                0x40106590                rand
 *fill*         0x401065a2        0x2 
 .text          0x401065a4       0xfa ../lib\libmc.a(lib_a-strncpy.o)
                0x401065dc                strncpy
 *fill*         0x4010669e        0x2 
 .text          0x401066a0      0x135 ../lib\libmgcc.a(_divsf3.o)
                0x4010671c                __divsf3
 *fill*         0x401067d5        0x3 
 .text          0x401067d8       0x40 ../lib\libmgcc.a(_fixsfsi.o)
                0x401067d8                __fixsfsi
 .text          0x40106818       0x21 ../lib\libmgcc.a(_popcountsi2.o)
                0x40106818                __popcountsi2
 *fill*         0x40106839        0x3 
 .literal       0x4010683c        0x0 ../lib\libmain.a(xtensa_vectors.o)
 *fill*         0x4010683c        0x0 
 .literal       0x4010683c        0x0 ../lib\libmain.a(app_main.o)
 .text          0x4010683c        0x0 ../lib\libmain.a(ets_timer.o)
 *fill*         0x4010683c        0x0 
 .literal       0x4010683c        0x0 ../lib\libmain.a(misc.o)
 *fill*         0x4010683c        0x0 
 .literal       0x4010683c        0x0 ../lib\libmain.a(printf-stdarg.o)
 .literal       0x4010683c        0x0 ../lib\libmain.a(spi_flash.o)
 .text          0x4010683c        0x0 ../lib\libmain.a(uart.o)
 .literal       0x4010683c        0x0 ../lib\libmain.a(user_interface.o)
 .literal       0x4010683c        0x0 ../lib\libmain.a(os_cpu_a.o)
 *fill*         0x4010683c        0x0 
 .text          0x4010683c       0x3d ../lib\libmain.a(xtensa_context.o)
                0x4010683c                _xt_context_save
                0x40106858                _xt_context_restore
 .text          0x40106879        0x0 ../lib\libmain.a(timers.o)
 *fill*         0x40106879        0x3 
 .literal       0x4010687c        0x0 ../lib\libfreertos.a(heap_4.o)
 *fill*         0x4010687c        0x0 
 .literal       0x4010687c        0x0 ../lib\libfreertos.a(port.o)
 *fill*         0x4010687c        0x0 
 .literal       0x4010687c        0x0 ../lib\libfreertos.a(queue.o)
 *fill*         0x4010687c        0x0 
 .literal       0x4010687c        0x0 ../lib\libfreertos.a(tasks.o)
 .text          0x4010687c        0x0 ../lib\libfreertos.a(timers.o)
 *fill*         0x4010687c        0x0 
 .literal       0x4010687c        0x0 ../lib\libfreertos.a(list.o)
 .text          0x4010687c       0x37 ../lib\libfreertos.a(list.o)
                0x4010687c                vListInsertEnd
                0x40106894                uxListRemove
 .text          0x401068b3        0x0 ../lib\liblwip.a(dhcp.o)
 .text          0x401068b3        0x0 ../lib\liblwip.a(dns.o)
 .text          0x401068b3        0x0 ../lib\liblwip.a(etharp.o)
 .text          0x401068b3        0x0 ../lib\liblwip.a(ip4_addr.o)
 .text          0x401068b3        0x0 ../lib\liblwip.a(ip4.o)
 .text          0x401068b3        0x0 ../lib\liblwip.a(ip_frag.o)
 .text          0x401068b3        0x0 ../lib\liblwip.a(memp.o)
 .text          0x401068b3        0x0 ../lib\liblwip.a(netif.o)
 .text          0x401068b3        0x0 ../lib\liblwip.a(pbuf.o)
 .text          0x401068b3        0x0 ../lib\liblwip.a(raw.o)
 .text          0x401068b3        0x0 ../lib\liblwip.a(stats.o)
 .text          0x401068b3        0x0 ../lib\liblwip.a(sys_arch.o)
 .text          0x401068b3        0x0 ../lib\liblwip.a(tcp_in.o)
 .text          0x401068b3        0x0 ../lib\liblwip.a(tcpip.o)
 .text          0x401068b3        0x0 ../lib\liblwip.a(tcp.o)
 .text          0x401068b3        0x0 ../lib\liblwip.a(tcp_out.o)
 .text          0x401068b3        0x0 ../lib\liblwip.a(timers.o)
 .text          0x401068b3        0x0 ../lib\liblwip.a(udp.o)
 .text          0x401068b3        0x0 ../lib\liblwip.a(icmp.o)
 .text          0x401068b3        0x0 ../lib\liblwip.a(inet_chksum.o)
 .text          0x401068b3        0x0 ../lib\liblwip.a(init.o)
 .text          0x401068b3        0x0 ../lib\liblwip.a(sockets.o)
 .text          0x401068b3        0x0 ../lib\liblwip.a(api_lib.o)
 .text          0x401068b3        0x0 ../lib\liblwip.a(api_msg.o)
 *fill*         0x401068b3        0x1 
 .literal       0x401068b4        0x0 ../lib\liblwip.a(netbuf.o)
 *fill*         0x401068b4        0x0 
 .literal       0x401068b4        0x0 user/.output/eagle/lib/libuser.a(user_main.o)
 .text          0x401068b4        0x0 user/.output/eagle/lib/libuser.a(spiram_fifo.o)
 .text          0x401068b4        0x0 user/.output/eagle/lib/libuser.a(iram_buf.o)
 .text          0x401068b4        0x0 mad/.output/eagle/lib/libmad.a(stream.o)
 *fill*         0x401068b4        0x0 
 .literal       0x401068b4        0x0 mad/.output/eagle/lib/libmad.a(synth.o)
 *fill*         0x401068b4        0x0 
 .literal       0x401068b4        0x0 mad/.output/eagle/lib/libmad.a(bit.o)
 .text          0x401068b4        0x0 mad/.output/eagle/lib/libmad.a(frame.o)
 *fill*         0x401068b4        0x0 
 .literal       0x401068b4        0x0 mad/.output/eagle/lib/libmad.a(timer.o)
 .literal       0x401068b4        0x0 mad/.output/eagle/lib/libmad.a(align.o)
 .text          0x401068b4       0x3f mad/.output/eagle/lib/libmad.a(align.o)
                0x401068b4                unalChar
                0x401068dc                unalShort
 .text          0x401068f3        0x0 mad/.output/eagle/lib/libmad.a(layer3.o)
 .text          0x401068f3        0x0 mad/.output/eagle/lib/libmad.a(huffman.o)
 *fill*         0x401068f3        0x1 
 .literal       0x401068f4        0x0 driver/.output/eagle/lib/libdriver.a(uart.o)
 *fill*         0x401068f4        0x0 
 .literal       0x401068f4        0x0 driver/.output/eagle/lib/libdriver.a(i2s_freertos.o)
 *fill*         0x401068f4        0x0 
 .text          0x401068f4       0x12 ../lib\libmc.a(lib_a-bzero.o)
                0x401068f4                bzero
 *fill*         0x40106906        0x2 
 .text          0x40106908       0x23 ../lib\libmc.a(lib_a-memcmp.o)
                0x40106908                memcmp
 *fill*         0x4010692b        0x1 
 .text          0x4010692c       0x3b ../lib\libmc.a(lib_a-memmove.o)
                0x4010692c                memmove
 *fill*         0x40106967        0x0 
 *fill*         0x40106967        0x0 
 *fill*         0x40106967        0x1 
 .text          0x40106968       0x33 ../lib\libmc.a(lib_a-strncmp.o)
                0x40106968                strncmp
 *fill*         0x4010699b        0x1 
 .text          0x4010699c       0x20 c:/espressif/xtensa-lx106-elf/bin/../lib/gcc/xtensa-lx106-elf/4.8.2/../../../../xtensa-lx106-elf/lib\libhal.a(clock.o)
                0x4010699c                xthal_get_ccount
                0x401069a4                xthal_set_ccompare
                0x401069b0                xthal_get_ccompare
 .text          0x401069bc        0x5 c:/espressif/xtensa-lx106-elf/bin/../lib/gcc/xtensa-lx106-elf/4.8.2/../../../../xtensa-lx106-elf/lib\libhal.a(int_asm--set_intset.o)
                0x401069bc                xthal_set_intset
 .text          0x401069c1        0x0 ../lib\libmphy.a(phy_chip_v5_ana_romfunc.o)
 *fill*         0x401069c1        0x3 
 .literal       0x401069c4        0x0 ../lib\libmphy.a(phy_chip_v5_romfunc.o)
 *fill*         0x401069c4        0x0 
 .literal       0x401069c4        0x0 ../lib\libmphy.a(phy.o)
 *fill*         0x401069c4        0x0 
 .literal       0x401069c4        0x0 ../lib\libmphy.a(phy_chip_v6.o)
 .text          0x401069c4        0x2 ../lib\libmphy.a(phy_chip_v6.o)
                0x401069c4                ram_tx_mac_disable
 .text          0x401069c6        0x0 ../lib\libmphy.a(phy_chip_v6_ana.o)
 *fill*         0x401069c6        0x2 
 .literal       0x401069c8        0x0 ../lib\libmphy.a(phy_chip_v6_cal.o)
 *fill*         0x401069c8        0x0 
 .literal       0x401069c8        0x0 ../lib\libmphy.a(phy_sleep.o)
 .text          0x401069c8        0x0 ../lib\libmphy.a(phy_chip_v5_cal_romfunc.o)
 *fill*         0x401069c8        0x0 
 .literal       0x401069c8        0x0 ../lib\libpp.a(lmac.o)
 .text          0x401069c8        0x0 ../lib\libpp.a(pm.o)
 .literal       0x401069c8        0x0 ../lib\libpp.a(pp.o)
 .literal       0x401069c8        0x0 ../lib\libpp.a(rate_control.o)
 *fill*         0x401069c8        0x0 
 .literal       0x401069c8        0x0 ../lib\libpp.a(trc.o)
 *fill*         0x401069c8        0x0 
 .literal       0x401069c8        0x0 ../lib\libpp.a(wdev.o)
 *fill*         0x401069c8        0x0 
 .literal       0x401069c8        0x0 ../lib\libpp.a(esf_buf.o)
 .text          0x401069c8        0x0 ../lib\libpp.a(if_hwctrl.o)
 .text          0x401069c8        0x0 ../lib\libnet80211.a(ieee80211.o)
 .text          0x401069c8        0x0 ../lib\libnet80211.a(ieee80211_crypto.o)
 .text          0x401069c8        0x0 ../lib\libnet80211.a(ieee80211_ets.o)
 .literal       0x401069c8        0x0 ../lib\libnet80211.a(ieee80211_hostap.o)
 .text          0x401069c8       0x25 ../lib\libnet80211.a(ieee80211_hostap.o)
 .text          0x401069ed        0x0 ../lib\libnet80211.a(ieee80211_ht.o)
 .text          0x401069ed        0x0 ../lib\libnet80211.a(ieee80211_input.o)
 .text          0x401069ed        0x0 ../lib\libnet80211.a(ieee80211_output.o)
 .text          0x401069ed        0x0 ../lib\libnet80211.a(ieee80211_phy.o)
 .text          0x401069ed        0x0 ../lib\libnet80211.a(ieee80211_power.o)
 .text          0x401069ed        0x0 ../lib\libnet80211.a(ieee80211_proto.o)
 .text          0x401069ed        0x0 ../lib\libnet80211.a(ieee80211_scan.o)
 .text          0x401069ed        0x0 ../lib\libnet80211.a(ieee80211_sta.o)
 *fill*         0x401069ed        0x3 
 .literal       0x401069f0        0x0 ../lib\libnet80211.a(wl_chm.o)
 .text          0x401069f0        0x0 ../lib\libnet80211.a(wl_cnx.o)
 .text          0x401069f0        0x0 ../lib\libnet80211.a(ieee80211_action.o)
 .text          0x401069f0        0x0 ../lib\libwpa.a(ap_config.o)
 .text          0x401069f0        0x0 ../lib\libwpa.a(common.o)
 .text          0x401069f0        0x0 ../lib\libwpa.a(os_xtensa.o)
 .text          0x401069f0        0x0 ../lib\libwpa.a(sha1-pbkdf2.o)
 *fill*         0x401069f0        0x0 
 .literal       0x401069f0        0x0 ../lib\libwpa.a(wpa_auth.o)
 .text          0x401069f0       0x11 ../lib\libwpa.a(wpa_auth.o)
 .text          0x40106a01        0x0 ../lib\libwpa.a(wpa_auth_ie.o)
 .text          0x40106a01        0x0 ../lib\libwpa.a(wpa.o)
 .text          0x40106a01        0x0 ../lib\libwpa.a(wpa_common.o)
 .text          0x40106a01        0x0 ../lib\libwpa.a(wpa_debug.o)
 .text          0x40106a01        0x0 ../lib\libwpa.a(wpa_ie.o)
 .text          0x40106a01        0x0 ../lib\libwpa.a(wpa_main.o)
 .text          0x40106a01        0x0 ../lib\libwpa.a(wpas_glue.o)
 .text          0x40106a01        0x0 ../lib\libwpa.a(aes-unwrap.o)
 .text          0x40106a01        0x0 ../lib\libwpa.a(aes-wrap.o)
 .text          0x40106a01        0x0 ../lib\libwpa.a(md5.o)
 .text          0x40106a01        0x0 ../lib\libwpa.a(md5-internal.o)
 .text          0x40106a01        0x0 ../lib\libwpa.a(rc4.o)
 .text          0x40106a01        0x0 ../lib\libwpa.a(sha1.o)
 .text          0x40106a01        0x0 ../lib\libwpa.a(sha1-internal.o)
 .text          0x40106a01        0x0 ../lib\libwpa.a(aes-internal-dec.o)
 .text          0x40106a01        0x0 ../lib\libwpa.a(aes-internal-enc.o)
 .text          0x40106a01        0x0 ../lib\libwpa.a(aes-internal.o)
 *fill*         0x40106a01        0x3 
 .literal       0x40106a04        0x0 ../lib\libmain.a(libc.o)
 .text          0x40106a04        0x0 ../lib\liblwip.a(ethernetif.o)
 .text          0x40106a04        0x0 ../lib\liblwip.a(netdb.o)
 .text          0x40106a04        0x0 main/.output/eagle/lib/libaddmmain.a(phy_chip_v6_unused.o)
 *fill*         0x40106a04        0x0 
 *fill*         0x40106a04        0x0 
 .text          0x40106a04       0x18 ../lib\libmgcc.a(_ashrdi3.o)
                0x40106a04                __ashrdi3
 *fill*         0x40106a1c        0x0 
 .text          0x40106a1c       0x49 ../lib\libmgcc.a(_modsi3.o)
                0x40106a1c                __modsi3
 *fill*         0x40106a65        0x0 
 .text          0x40106a65        0x0 ../lib\libmgcc.a(_popcount_tab.o)
 .text          0x40106a65        0x0 ../lib\libnet80211.a(ieee80211_crypto_ccmp.o)
 .text          0x40106a65        0x0 ../lib\libnet80211.a(ieee80211_crypto_tkip.o)
 .text          0x40106a65        0x0 ../lib\libnet80211.a(ieee80211_crypto_wep.o)
 *(.fini.literal)
 *(.fini)
 *(.gnu.version)
                0x40106a65                _text_end = ABSOLUTE (.)
                0x40106a65                _etext = .

.UserEnter.literal
                0x40106a68        0x0
 .UserEnter.literal
                0x40106a68        0x0 ../lib\libmain.a(xtensa_vectors.o)

.DebugExceptionVector.literal
                0x40106a68        0x0
 .DebugExceptionVector.literal
                0x40106a68        0x0 ../lib\libmain.a(xtensa_vectors.o)

.DoubleExceptionVector.literal
                0x40106a68        0x0
 .DoubleExceptionVector.literal
                0x40106a68        0x0 ../lib\libmain.a(xtensa_vectors.o)

.KernelExceptionVector.literal
                0x40106a68        0x0
 .KernelExceptionVector.literal
                0x40106a68        0x0 ../lib\libmain.a(xtensa_vectors.o)

.NMIExceptionVector.literal
                0x40106a68        0x0
 .NMIExceptionVector.literal
                0x40106a68        0x0 ../lib\libmain.a(xtensa_vectors.o)

.lit4           0x40106a68        0x0
                0x40106a68                _lit4_start = ABSOLUTE (.)
 *(*.lit4)
 *(.lit4.*)
 *(.gnu.linkonce.lit4.*)
                0x40106a68                _lit4_end = ABSOLUTE (.)

.irom0.text     0x40209000    0x3f628
                0x40209000                _irom0_text_start = ABSOLUTE (.)
 *(.irom0.literal .irom.literal .irom.text.literal .irom0.text .irom.text)
 .irom0.text    0x40209000      0x68a ../lib\libmain.a(app_main.o)
                                0x7ca (size before relaxing)
                0x402092d0                uart_rx_one_char
                0x402092f8                wdt_init
                0x402093a0                user_init_task
 *fill*         0x4020968a        0x2 
 .irom0.text    0x4020968c      0x42f ../lib\libmain.a(ets_timer.o)
                                0x4cf (size before relaxing)
                0x4020976c                ets_timer_setfn
                0x402097dc                ets_timer_disarm
                0x40209838                ets_timer_arm_ms_us
                0x402098bc                ets_timer_arm_us
                0x402098d0                ets_timer_arm
                0x402098e4                ets_timer_done
                0x40209910                ets_timer_handler_isr
                0x40209a30                ets_timer_init
 *fill*         0x40209abb        0x1 
 .irom0.text    0x40209abc       0xd4 ../lib\libmain.a(misc.o)
                                 0xe4 (size before relaxing)
                0x40209ac4                os_delay_us
                0x40209ac4                ets_delay_us
                0x40209af8                os_update_cpu_frequency
                0x40209af8                ets_update_cpu_frequency
                0x40209b04                os_install_putc1
                0x40209b0c                os_putc
                0x40209b24                gpio_output_set
                0x40209b48                rtc_get_reset_reason
 .irom0.text    0x40209b90       0x4a ../lib\libmain.a(uart.o)
                                 0x4e (size before relaxing)
                0x40209b90                uart_buff_switch
                0x40209ba0                uart_div_modify
                0x40209bd8                Uart_Init
 *fill*         0x40209bda        0x2 
 .irom0.text    0x40209bdc     0x2051 ../lib\libmain.a(user_interface.o)
                               0x25fd (size before relaxing)
                0x40209d7c                system_pp_recycle_rx_pkt
                0x40209d90                system_adc_read
                0x40209db4                system_restart
                0x40209e08                system_restore
                0x40209e50                system_get_boot_version
                0x40209e88                system_get_test_result
                0x40209eb0                system_get_userbin_addr
                0x40209f34                system_get_boot_mode
                0x40209f60                system_restart_enhance
                0x4020a038                system_upgrade_userbin_set
                0x4020a080                system_upgrade_userbin_check
                0x4020a0bc                system_upgrade_flag_set
                0x4020a0d0                system_upgrade_flag_check
                0x4020a0e4                system_upgrade_reboot
                0x4020a368                system_deep_sleep
                0x4020a3a8                system_update_cpu_freq
                0x4020a404                system_get_cpu_freq
                0x4020a41c                system_overclock
                0x4020a448                system_restoreclock
                0x4020a480                system_get_time
                0x4020a494                system_relative_time
                0x4020a4ac                system_station_got_ip_set
                0x4020a568                system_print_meminfo
                0x4020a5d8                system_get_free_heap_size
                0x4020a5f0                system_get_chip_id
                0x4020a614                system_rtc_clock_cali_proc
                0x4020a628                system_get_rtc_time
                0x4020a634                system_get_rst_info
                0x4020a660                wifi_station_dhcpc_start
                0x4020a6b8                wifi_station_dhcpc_stop
                0x4020a6f8                wifi_station_dhcpc_status
                0x4020a738                wifi_get_opmode
                0x4020a74c                wifi_get_opmode_default
                0x4020a7d4                wifi_set_opmode_local
                0x4020a82c                wifi_set_opmode
                0x4020a840                wifi_set_opmode_current
                0x4020a854                system_get_checksum
                0x4020a910                wifi_param_save_protect
                0x4020aaa4                wifi_station_get_config
                0x4020aab8                wifi_station_get_config_default
                0x4020aad8                wifi_station_get_ap_info
                0x4020ab94                wifi_station_ap_number_set
                0x4020ae04                wifi_station_set_config
                0x4020ae18                wifi_station_set_config_current
                0x4020ae2c                wifi_station_get_current_ap_id
                0x4020ae40                wifi_station_ap_check
                0x4020ae78                wifi_station_ap_change
                0x4020af5c                wifi_station_scan
                0x4020afa0                wifi_station_get_auto_connect
                0x4020afb4                wifi_station_set_auto_connect
                0x4020afec                wifi_station_connect
                0x4020b074                wifi_station_disconnect
                0x4020b0d4                wifi_station_get_connect_status
                0x4020b104                wifi_softap_cacl_mac
                0x4020b178                wifi_softap_set_default_ssid
                0x4020b2fc                wifi_softap_get_config
                0x4020b310                wifi_softap_get_config_default
                0x4020b550                wifi_softap_set_config
                0x4020b564                wifi_softap_set_config_current
                0x4020b578                wifi_softap_set_station_info
                0x4020b5dc                wifi_softap_get_station_info
                0x4020b66c                wifi_softap_free_station_info
                0x4020b6a4                wifi_softap_deauth
                0x4020b758                wifi_get_phy_mode
                0x4020b760                wifi_set_phy_mode
                0x4020b7e8                wifi_set_sleep_type
                0x4020b808                wifi_get_sleep_type
                0x4020b810                wifi_get_channel
                0x4020b828                wifi_set_channel
                0x4020b858                wifi_promiscuous_set_mac
                0x4020b8a4                wifi_promiscuous_enable
                0x4020b950                wifi_set_promiscuous_rx_cb
                0x4020b958                wifi_get_ip_info
                0x4020b9cc                wifi_set_ip_info
                0x4020ba74                wifi_get_macaddr
                0x4020bad0                wifi_set_macaddr
                0x4020bb80                wifi_status_led_install
                0x4020bbb4                system_uart_swap
                0x4020bc28                system_get_sdk_version
 *fill*         0x4020bc2d        0x3 
 .irom0.text    0x4020bc30      0x181 ../lib\libmain.a(timers.o)
                                0x1c1 (size before relaxing)
                0x4020bc38                os_timer_setfn
                0x4020bce4                os_timer_arm
                0x4020bd88                os_timer_disarm
 *fill*         0x4020bdb1        0x3 
 .irom0.text    0x4020bdb4       0x8d ../lib\libfreertos.a(port.o)
                                 0x9d (size before relaxing)
                0x4020bdb8                pxPortInitialiseStack
                0x4020bdf8                xPortStartScheduler
                0x4020be38                vPortEndScheduler
                0x4020be3c                ResetCcountVal
 *fill*         0x4020be41        0x3 
 .irom0.text    0x4020be44      0x58f ../lib\libfreertos.a(queue.o)
                                0x703 (size before relaxing)
                0x4020be48                xQueueGenericReset
                0x4020bed4                xQueueGenericCreate
                0x4020bf34                xQueueCreateMutex
                0x4020bf94                xQueueGenericSend
                0x4020c0ac                xQueueGenericReceive
                0x4020c20c                uxQueueMessagesWaiting
                0x4020c234                vQueueDelete
                0x4020c37c                vQueueWaitForMessageRestricted
 *fill*         0x4020c3d3        0x1 
 .irom0.text    0x4020c3d4      0xbfe ../lib\libfreertos.a(tasks.o)
                                0xe86 (size before relaxing)
                0x4020c3e0                xTaskGenericCreate
                0x4020c4e4                vTaskDelete
                0x4020c55c                vTaskDelayUntil
                0x4020c5cc                vTaskDelay
                0x4020c614                uxTaskPriorityGet
                0x4020c640                vTaskPrioritySet
                0x4020c714                vTaskSuspend
                0x4020c798                xTaskIsTaskSuspended
                0x4020c7bc                vTaskResume
                0x4020c83c                xTaskResumeFromISR
                0x4020c8d0                vTaskStartScheduler
                0x4020c934                vTaskEndScheduler
                0x4020c958                vTaskSuspendAll
                0x4020c970                prvGetExpectedIdleTime
                0x4020c9a0                xTaskResumeAll
                0x4020ca9c                xTaskGetTickCount
                0x4020cac4                xTaskGetTickCountFromISR
                0x4020cad0                uxTaskGetNumberOfTasks
                0x4020cadc                xTaskGetIdleTaskHandle
                0x4020cae4                vTaskStepTick
                0x4020caf8                vTaskPlaceOnEventList
                0x4020cb54                vTaskPlaceOnEventListRestricted
                0x4020cb98                xTaskRemoveFromEventList
                0x4020cc18                vTaskSetTimeOutState
                0x4020cc2c                xTaskCheckForTimeOut
                0x4020cc88                vTaskMissedYield
                0x4020ccbc                eTaskConfirmSleepModeStatus
                0x4020cee4                uxTaskGetStackHighWaterMark
                0x4020cf24                xTaskGetCurrentTaskHandle
                0x4020cf30                xTaskGetSchedulerState
                0x4020cf50                vTaskPriorityInherit
 *fill*         0x4020cfd2        0x2 
 .irom0.text    0x4020cfd4      0x410 ../lib\libfreertos.a(timers.o)
                                0x4ec (size before relaxing)
                0x4020cfe4                xTimerCreateTimerTask
                0x4020d034                xTimerCreate
                0x4020d088                xTimerGenericCommand
                0x4020d0e4                xTimerGetTimerDaemonTaskHandle
                0x4020d3b4                xTimerIsTimerActive
                0x4020d3e0                pvTimerGetTimerID
 .irom0.text    0x4020d3e4     0x1242 ../lib\liblwip.a(dhcp.o)
                               0x14aa (size before relaxing)
                0x4020d5f8                dhcp_coarse_tmr
                0x4020d640                dhcp_fine_tmr
                0x4020d86c                dhcp_set_struct
                0x4020d890                dhcp_cleanup
                0x4020d8b4                dhcp_start
                0x4020d964                dhcp_inform
                0x4020da0c                dhcp_network_changed
                0x4020da54                dhcp_arp_reply
                0x4020dcd8                dhcp_renew
                0x4020dedc                dhcp_release
                0x4020df9c                dhcp_stop
 *fill*         0x4020e626        0x2 
 .irom0.text    0x4020e628      0x603 ../lib\liblwip.a(dns.o)
                                0x6b7 (size before relaxing)
                0x4020e634                dns_init
                0x4020e688                dns_setserver
                0x4020e6b4                dns_getserver
                0x4020e6c8                dns_tmr
                0x4020ebc8                dns_gethostbyname
 *fill*         0x4020ec2b        0x1 
 .irom0.text    0x4020ec2c      0x92a ../lib\liblwip.a(etharp.o)
                                0xa32 (size before relaxing)
                0x4020ec8c                etharp_tmr
                0x4020eeb0                etharp_cleanup_netif
                0x4020eeec                etharp_find_addr
                0x4020f110                etharp_output
                0x4020f23c                etharp_query
                0x4020f46c                etharp_request
                0x4020f490                ethernet_input
 *fill*         0x4020f556        0x2 
 .irom0.text    0x4020f558      0x2d0 ../lib\liblwip.a(ip4_addr.o)
                                0x2e0 (size before relaxing)
                0x4020f558                ip4_addr_isbroadcast
                0x4020f588                ip4_addr_netmask_valid
                0x4020f5cc                ipaddr_addr
                0x4020f5e8                ipaddr_aton
                0x4020f74c                ipaddr_ntoa
                0x4020f764                ipaddr_ntoa_r
 .irom0.text    0x4020f828      0x4ec ../lib\liblwip.a(ip4.o)
                                0x598 (size before relaxing)
                0x4020f82c                ip_route
                0x4020f8a4                ip_input
                0x4020fb4c                ip_output_if
                0x4020fcd0                ip_output
 .irom0.text    0x4020fd14      0x15f ../lib\liblwip.a(ip_frag.o)
                                0x18f (size before relaxing)
                0x4020fd18                ip_frag
 *fill*         0x4020fe73        0x1 
 .irom0.text    0x4020fe74      0x24d ../lib\liblwip.a(netif.o)
                                0x275 (size before relaxing)
                0x4020fe74                netif_init
                0x4020fe7c                netif_add
                0x4020fed4                netif_set_addr
                0x4020fefc                netif_remove
                0x4020ff48                netif_find
                0x4020ff88                netif_set_ipaddr
                0x4020fff0                netif_set_gw
                0x40210000                netif_set_netmask
                0x40210010                netif_set_default
                0x40210018                netif_set_up
                0x40210050                netif_set_down
                0x40210074                netif_set_link_up
                0x402100b0                netif_set_link_down
 *fill*         0x402100c1        0x3 
 .irom0.text    0x402100c4      0x6ee ../lib\liblwip.a(pbuf.o)
                                0x78e (size before relaxing)
                0x4021016c                pbuf_alloc
                0x402102bc                pbuf_realloc
                0x40210304                pbuf_header
                0x40210370                pbuf_free
                0x402103f0                pbuf_clen
                0x40210408                pbuf_ref
                0x4021042c                pbuf_cat
                0x40210458                pbuf_chain
                0x40210474                pbuf_dechain
                0x402104b0                pbuf_copy
                0x40210558                pbuf_copy_partial
                0x402105e0                pbuf_take
                0x40210644                pbuf_coalesce
                0x40210678                pbuf_get_at
                0x402106a0                pbuf_memcmp
                0x40210714                pbuf_memfind
                0x40210768                pbuf_strstr
 *fill*         0x402107b2        0x2 
 .irom0.text    0x402107b4      0x1df ../lib\liblwip.a(raw.o)
                                0x22f (size before relaxing)
                0x402107bc                raw_input
                0x40210844                raw_bind
                0x40210854                raw_connect
                0x40210864                raw_recv
                0x4021086c                raw_sendto
                0x40210908                raw_send
                0x4021091c                raw_remove
                0x40210950                raw_new
 *fill*         0x40210993        0x1 
 .irom0.text    0x40210994      0x33f ../lib\liblwip.a(sys_arch.o)
                                0x3df (size before relaxing)
                0x40210994                sys_init
                0x40210998                sys_sem_new
                0x402109e0                sys_sem_free
                0x402109f4                sys_sem_signal
                0x40210a10                sys_arch_sem_wait
                0x40210a88                sys_mbox_new
                0x40210ab4                sys_mbox_free
                0x40210ad4                sys_mbox_post
                0x40210afc                sys_mbox_trypost
                0x40210b28                sys_arch_mbox_fetch
                0x40210bac                sys_arch_mbox_tryfetch
                0x40210bd0                sys_mutex_new
                0x40210bf8                sys_mutex_lock
                0x40210c1c                sys_mutex_unlock
                0x40210c38                sys_mutex_free
                0x40210c4c                sys_now
                0x40210c60                sys_thread_new
                0x40210c94                sys_arch_protect
                0x40210ca8                sys_arch_unprotect
                0x40210cc0                sys_arch_assert
 *fill*         0x40210cd3        0x1 
 .irom0.text    0x40210cd4     0x15fd ../lib\liblwip.a(tcp_in.o)
                               0x1831 (size before relaxing)
                0x40210ce0                tcp_input
 *fill*         0x402122d1        0x3 
 .irom0.text    0x402122d4      0x37e ../lib\liblwip.a(tcpip.o)
                                0x46e (size before relaxing)
                0x40212390                tcpip_input
                0x402123e4                tcpip_callback_with_block
                0x40212448                tcpip_timeout
                0x40212498                tcpip_untimeout
                0x402124e4                tcpip_apimsg
                0x40212530                tcpip_callbackmsg_new
                0x40212560                tcpip_callbackmsg_delete
                0x40212574                tcpip_trycallback
                0x402125a8                tcpip_init
                0x40212624                pbuf_free_callback
                0x4021263c                mem_free_callback
 *fill*         0x40212652        0x2 
 .irom0.text    0x40212654      0xdb2 ../lib\liblwip.a(tcp.o)
                                0xf2a (size before relaxing)
                0x40212654                tcp_init
                0x4021265c                tcp_tmr
                0x402127e8                tcp_close
                0x4021280c                tcp_shutdown
                0x40212878                tcp_abandon
                0x40212914                tcp_abort
                0x4021292c                tcp_bind
                0x402129e0                tcp_listen_with_backlog
                0x40212ab8                tcp_update_rcv_ann_wnd
                0x40212af4                tcp_recved
                0x40212b98                tcp_connect
                0x40212ce0                tcp_slowtmr
                0x40212fac                tcp_fasttmr
                0x40213020                tcp_process_refused_data
                0x402130a4                tcp_segs_free
                0x402130c0                tcp_seg_free
                0x402130e8                tcp_setprio
                0x402130f0                tcp_seg_copy
                0x40213130                tcp_recv_null
                0x402131e8                tcp_alloc
                0x402132bc                tcp_new
                0x402132d0                tcp_arg
                0x402132d4                tcp_recv
                0x402132dc                tcp_sent
                0x402132e4                tcp_err
                0x402132ec                tcp_accept
                0x402132f0                tcp_poll
                0x402132f8                tcp_pcb_purge
                0x4021334c                tcp_pcb_remove
                0x402133b4                tcp_next_iss
                0x402133c4                tcp_eff_send_mss_impl
                0x402133fc                tcp_debug_state_str
 *fill*         0x40213406        0x2 
 .irom0.text    0x40213408     0x102f ../lib\liblwip.a(tcp_out.o)
                               0x1187 (size before relaxing)
                0x40213508                tcp_send_fin
                0x40213714                tcp_write
                0x40213a74                tcp_enqueue_flags
                0x40213b78                tcp_send_empty_ack
                0x40213c08                tcp_output
                0x40214048                tcp_rst_impl
                0x40214178                tcp_rexmit_rto
                0x402141b0                tcp_rexmit
                0x40214260                tcp_rexmit_fast
                0x402142b8                tcp_keepalive
                0x40214344                tcp_zero_window_probe
 *fill*         0x40214437        0x1 
 .irom0.text    0x40214438      0x276 ../lib\liblwip.a(timers.o)
                                0x316 (size before relaxing)
                0x40214478                tcp_timer_needed
                0x4021452c                sys_timeouts_init
                0x40214564                sys_timeout
                0x402145e0                sys_untimeout
                0x4021462c                sys_timeouts_mbox_fetch
 *fill*         0x402146ae        0x2 
 .irom0.text    0x402146b0      0x58d ../lib\liblwip.a(udp.o)
                                0x661 (size before relaxing)
                0x402146b0                udp_init
                0x40214700                udp_input
                0x40214954                udp_send
                0x40214968                udp_sendto
                0x402149ac                udp_sendto_if
                0x40214ae0                udp_bind
                0x40214b5c                udp_connect
                0x40214bb8                udp_disconnect
                0x40214bd0                udp_recv
                0x40214bd8                udp_remove
                0x40214c0c                udp_new
 *fill*         0x40214c3d        0x3 
 .irom0.text    0x40214c40      0x2b5 ../lib\liblwip.a(icmp.o)
                                0x355 (size before relaxing)
                0x40214c44                icmp_input
                0x40214e2c                icmp_dest_unreach
 *fill*         0x40214ef5        0x3 
 .irom0.text    0x40214ef8       0x24 ../lib\liblwip.a(init.o)
                                 0x5c (size before relaxing)
                0x40214ef8                lwip_init
 .irom0.text    0x40214f1c     0x15db ../lib\liblwip.a(sockets.o)
                               0x17ef (size before relaxing)
                0x40214f1c                lwip_socket_init
                0x4021501c                lwip_accept
                0x40215170                lwip_bind
                0x402151f0                lwip_close
                0x4021523c                lwip_connect
                0x402152cc                lwip_listen
                0x40215344                lwip_recvhold
                0x40215388                lwip_recvunhold
                0x40215414                lwip_recvfrom
                0x40215650                lwip_read
                0x40215668                lwip_recv
                0x4021567c                lwip_send
                0x40215710                lwip_sendto
                0x40215804                lwip_socket
                0x40215884                lwip_write
                0x40215a30                lwip_select
                0x40215df0                lwip_shutdown
                0x40215ef8                lwip_getpeername
                0x40215f0c                lwip_getsockname
                0x40215f34                lwip_getsockopt
                0x40216200                lwip_setsockopt
                0x40216448                lwip_ioctl
                0x4021649c                lwip_fcntl
 *fill*         0x402164f7        0x1 
 .irom0.text    0x402164f8      0x6ed ../lib\liblwip.a(api_lib.o)
                                0x821 (size before relaxing)
                0x402164fc                netconn_new_with_proto_and_callback
                0x40216548                netconn_delete
                0x40216578                netconn_getaddr
                0x402165d4                netconn_bind
                0x40216628                netconn_connect
                0x40216698                netconn_disconnect
                0x402166ec                netconn_listen_with_backlog
                0x4021673c                netconn_accept
                0x402168cc                netconn_recv_tcp_pbuf
                0x402168f0                netconn_recv
                0x4021699c                netconn_recved
                0x402169cc                netconn_sendto
                0x402169f4                netconn_send
                0x40216a4c                netconn_write_partly
                0x40216b4c                netconn_close
                0x40216b60                netconn_shutdown
                0x40216b88                netconn_gethostbyname
 *fill*         0x40216be5        0x3 
 .irom0.text    0x40216be8      0xe91 ../lib\liblwip.a(api_msg.o)
                               0x1119 (size before relaxing)
                0x40217064                lwip_netconn_do_newconn
                0x40217090                netconn_alloc
                0x40217124                netconn_free
                0x402172dc                lwip_netconn_do_delconn
                0x40217374                lwip_netconn_do_bind
                0x40217474                lwip_netconn_do_connect
                0x40217548                lwip_netconn_do_disconnect
                0x4021758c                lwip_netconn_do_listen
                0x40217648                lwip_netconn_do_send
                0x402176d8                lwip_netconn_do_recv
                0x402178b4                lwip_netconn_do_write
                0x40217910                lwip_netconn_do_getaddr
                0x402179a4                lwip_netconn_do_close
                0x40217a44                lwip_netconn_do_gethostbyname
 *fill*         0x40217a79        0x3 
 .irom0.text    0x40217a7c      0x15c ../lib\liblwip.a(netbuf.o)
                                0x180 (size before relaxing)
                0x40217a7c                netbuf_delete
                0x40217aa8                netbuf_alloc
                0x40217ae4                netbuf_free
                0x40217b08                netbuf_ref
                0x40217b5c                netbuf_chain
                0x40217b90                netbuf_data
                0x40217bb4                netbuf_next
                0x40217bd0                netbuf_first
 .irom0.text    0x40217bd8      0x542 user/.output/eagle/lib/libuser.a(user_main.o)
                                0x6c6 (size before relaxing)
                0x40217bf4                tskconnect
                0x40217cb0                tskmad
                0x40217ddc                recalcAddDelSamp
                0x40217e74                set_dac_sample_rate
                0x40217ea4                getIpForHost
                0x40217f00                openConn
                0x40217fe8                tskreader
                0x402180c0                user_init
 *fill*         0x4021811a        0x2 
 .irom0.text    0x4021811c      0x326 user/.output/eagle/lib/libuser.a(spiram_fifo.o)
                                0x412 (size before relaxing)
                0x40218140                spiRamFifoInit
                0x402181c4                spiRamFifoRead
                0x402182a0                spiRamFifoWrite
                0x40218378                spiRamFifoFill
                0x402183b0                spiRamFifoFree
                0x402183cc                spiRamFifoLen
                0x402183d4                spiRamGetOverrunCt
                0x4021840c                spiRamGetUnderrunCt
 *fill*         0x40218442        0x2 
 .irom0.text    0x40218444      0x2bd user/.output/eagle/lib/libuser.a(iram_buf.o)
                                0x2f5 (size before relaxing)
                0x40218474                get_eram_size
                0x40218580                eram_init
                0x402185b4                eRamRead
                0x4021865c                eRamWrite
 *fill*         0x40218701        0x3 
 .irom0.text    0x40218704      0x23c mad/.output/eagle/lib/libmad.a(stream.o)
                                0x248 (size before relaxing)
                0x40218708                mad_stream_init
                0x40218750                mad_stream_finish
                0x4021875c                mad_stream_buffer
                0x40218780                mad_stream_skip
                0x4021878c                mad_stream_sync
                0x40218848                mad_stream_errorstr
 .irom0.text    0x40218940     0x1342 mad/.output/eagle/lib/libmad.a(synth.o)
                               0x1382 (size before relaxing)
                0x40219b8c                mad_synth_mute
                0x40219bcc                mad_synth_init
                0x40219bf8                mad_synth_frame
 *fill*         0x40219c82        0x2 
 .irom0.text    0x40219c84      0x5eb mad/.output/eagle/lib/libmad.a(frame.o)
                                0x66b (size before relaxing)
                0x40219e44                mad_header_init
                0x40219e6c                mad_frame_finish
                0x40219e84                mad_header_decode
                0x4021a15c                mad_frame_decode
                0x4021a1f4                mad_frame_mute
                0x4021a24c                mad_frame_init
 *fill*         0x4021a26f        0x1 
 .irom0.text    0x4021a270      0x7ea mad/.output/eagle/lib/libmad.a(timer.o)
                                0x8f2 (size before relaxing)
                0x4021a35c                mad_timer_compare
                0x4021a388                mad_timer_negate
                0x4021a3d8                mad_timer_set
                0x4021a510                mad_timer_add
                0x4021a558                mad_timer_multiply
                0x4021a5ac                mad_timer_count
                0x4021a6d8                mad_timer_fraction
                0x4021a714                mad_timer_string
 *fill*         0x4021aa5a        0x2 
 .irom0.text    0x4021aa5c     0x27bb mad/.output/eagle/lib/libmad.a(layer3.o)
                               0x290f (size before relaxing)
                0x4021cd6c                mad_layer_III
 *fill*         0x4021d217        0x1 
 .irom0.text    0x4021d218      0x3e7 driver/.output/eagle/lib/libdriver.a(uart.o)
                                0x43f (size before relaxing)
                0x4021d21c                UART_SetWordLength
                0x4021d23c                UART_SetStopBits
                0x4021d260                UART_SetLineInverse
                0x4021d284                UART_SetParity
                0x4021d2b0                UART_SetBaudrate
                0x4021d2f4                UART_SetFlowCtrl
                0x4021d39c                UART_WaitTxFifoEmpty
                0x4021d3b4                UART_ResetFifo
                0x4021d3dc                UART_ClearIntrStatus
                0x4021d3f4                UART_SetIntrEna
                0x4021d40c                UART_intr_handler_register
                0x4021d42c                UART_SetPrintPort
                0x4021d458                UART_ParamConfig
                0x4021d510                UART_IntrConfig
                0x4021d58c                uart_init_new
 *fill*         0x4021d5ff        0x1 
 .irom0.text    0x4021d600      0x2cb driver/.output/eagle/lib/libdriver.a(i2s_freertos.o)
                                0x2ff (size before relaxing)
                0x4021d684                i2sInit
                0x4021d8c4                i2sGetUnderrunCnt
 *fill*         0x4021d8cb        0x1 
 .irom0.text    0x4021d8cc     0x101b ../lib\libmphy.a(phy_chip_v5_ana_romfunc.o)
                               0x112b (size before relaxing)
                0x4021d8d0                rom_ana_inf_gating_en
                0x4021da74                rom_set_channel_freq
                0x4021ddb8                rom_chip_50_set_channel
                0x4021dfb8                rom_chip_v5_rx_init
                0x4021e024                rom_chip_v5_tx_init
                0x4021e0fc                rom_i2c_readReg
                0x4021e130                rom_i2c_readReg_Mask
                0x4021e16c                rom_i2c_writeReg
                0x4021e1a0                rom_i2c_writeReg_Mask
                0x4021e214                rom_pbus_debugmode
                0x4021e2a4                rom_pbus_enter_debugmode
                0x4021e2d8                rom_pbus_exit_debugmode
                0x4021e30c                rom_pbus_force_test
                0x4021e368                rom_pbus_rd
                0x4021e3d4                rom_pbus_set_rxgain
                0x4021e498                rom_pbus_set_txgain
                0x4021e4d0                rom_pbus_workmode
                0x4021e510                rom_pbus_xpd_rx_off
                0x4021e558                rom_pbus_xpd_rx_on
                0x4021e588                rom_pbus_xpd_tx_off
                0x4021e5c8                rom_pbus_xpd_tx_on
                0x4021e628                rom_pbus_xpd_tx_on__low_gain
                0x4021e68c                rom_phy_reset_req
                0x4021e6a4                rom_restart_cal
                0x4021e6f0                rom_rfpll_reset
                0x4021e760                rom_write_rfpll_sdm
                0x4021e808                rom_rfpll_set_freq
 *fill*         0x4021e8e7        0x1 
 .irom0.text    0x4021e8e8      0x9e0 ../lib\libmphy.a(phy_chip_v5_romfunc.o)
                                0xab4 (size before relaxing)
                0x4021e8e8                rom_abs_temp
                0x4021e8f8                rom_chip_v5_disable_cca
                0x4021e914                rom_chip_v5_enable_cca
                0x4021e934                rom_chip_v5_sense_backoff
                0x4021e980                rom_dc_iq_est
                0x4021e9dc                rom_en_pwdet
                0x4021ea4c                rom_get_bb_atten
                0x4021ea74                rom_get_corr_power
                0x4021eaf0                rom_get_fm_sar_dout
                0x4021eb8c                rom_get_noisefloor
                0x4021eba8                rom_get_power_db
                0x4021ebf8                rom_iq_est_disable
                0x4021ec28                rom_iq_est_enable
                0x4021ec7c                rom_linear_to_db
                0x4021ecf4                rom_set_txclk_en
                0x4021ed38                rom_set_rxclk_en
                0x4021ed88                rom_mhz2ieee
                0x4021edf0                rom_rxiq_get_mis
                0x4021ef1c                rom_sar_init
                0x4021ef70                rom_set_ana_inf_tx_scale
                0x4021efac                rom_set_loopback_gain
                0x4021f014                rom_set_noise_floor
                0x4021f054                rom_start_noisefloor
                0x4021f094                rom_start_tx_tone
                0x4021f160                rom_stop_tx_tone
                0x4021f1ec                rom_txtone_linear_pwr
                0x4021f258                rom_tx_mac_disable
                0x4021f294                rom_tx_mac_enable
 .irom0.text    0x4021f2c8       0xfa ../lib\libmphy.a(phy.o)
                                0x11e (size before relaxing)
                0x4021f2cc                rf_init
                0x4021f2e8                bb_init
                0x4021f300                phy_init
                0x4021f330                RFChannelSel
                0x4021f34c                phy_delete_channel
                0x4021f364                phy_enable_agc
                0x4021f37c                phy_disable_agc
                0x4021f394                phy_initialize_bb
                0x4021f3ac                phy_set_sense
 *fill*         0x4021f3c2        0x2 
 .irom0.text    0x4021f3c4     0x3910 ../lib\libmphy.a(phy_chip_v6.o)
                               0x3fb4 (size before relaxing)
                0x4021f3c4                ram_tx_mac_enable
                0x4021f3c8                rtc_mem_backup
                0x4021f3f8                rtc_mem_recovery
                0x4021f428                set_cal_rxdc
                0x4021f4e0                set_rx_gain_cal_iq
                0x4021f840                gen_rx_gain_table
                0x4021f980                pbus_set_rxbbgain
                0x4021f9fc                set_rx_gain_testchip_50
                0x4021fd14                ram_get_corr_power
                0x4021fe04                check_data_func
                0x4021fe20                do_noisefloor_lsleep_v50
                0x4021fe54                do_noisefloor
                0x4021fec4                start_dig_rx
                0x4021ff08                stop_dig_rx
                0x4021ff34                chip_v6_set_chanfreq
                0x4021ff78                tx_cap_init
                0x40220128                target_power_add_backoff
                0x40220174                tx_pwctrl_init_cal
                0x402202dc                tx_atten_set_interp
                0x40220554                tx_pwctrl_init
                0x40220650                ram_get_noisefloor
                0x4022066c                get_noisefloor_sat
                0x4022069c                ram_set_noise_floor
                0x402206f0                ram_start_noisefloor
                0x40220738                read_hw_noisefloor
                0x40220764                noise_check_loop
                0x402208d0                noise_init
                0x40220ad0                target_power_backoff
                0x40220b24                sdt_on_noise_start
                0x40220ba8                chip_v6_set_chan_rx_cmp
                0x40220d30                chip_v6_set_chan_misc
                0x40220da0                phy_dig_spur_set
                0x40221100                phy_dig_spur_prot
                0x40221338                chip_v6_rxmax_ext_dig
                0x40221384                chip_v6_rxmax_ext
                0x40221430                phy_bb_rx_cfg
                0x40221838                uart_wait_idle
                0x4022186c                phy_pbus_soc_cfg
                0x4022192c                phy_gpio_cfg
                0x40221c64                tx_cont_en
                0x40221d08                tx_cont_dis
                0x40221d5c                tx_cont_cfg
                0x40221d80                chip_v6_initialize_bb
                0x40221ef0                periodic_cal
                0x40222004                bbpll_cal
                0x40222090                periodic_cal_top
                0x402220f4                register_chipv6_phy_init_param
                0x40222394                change_bbpll160_sleep
                0x40222484                change_bbpll160
                0x402224b4                set_crystal_uart
                0x40222524                ant_switch_init
                0x402225d0                reduce_current_init
                0x40222638                rtc_mem_check
                0x40222670                phy_afterwake_set_rfoption
                0x4022269c                deep_sleep_set_option
                0x40222714                register_chipv6_phy
                0x402229d0                set_dpd_bypass
                0x40222a28                set_rf_gain_stage10
                0x40222a58                get_vdd33_offset
                0x40222acc                get_phy_target_power
                0x40222b7c                set_most_pwr_reg
                0x40222c50                phy_set_most_tpw
                0x40222c74                phy_vdd33_set_tpw
                0x40222c8c                get_adc_rand
                0x40222cc0                phy_get_rand
 .irom0.text    0x40222cd4     0x1820 ../lib\libmphy.a(phy_chip_v6_ana.o)
                               0x1b0c (size before relaxing)
                0x40222cd4                ram_pbus_set_rxgain
                0x40222d9c                ram_pbus_debugmode
                0x40222e50                ram_pbus_xpd_tx_on
                0x40222ebc                set_rf_freq_offset
                0x40222f2c                chip_v6_rxmax_ext_ana
                0x4022307c                ram_chip_v6_rx_init
                0x402230a4                tsen_meas
                0x4022314c                readvdd33
                0x402232d4                txpwr_offset
                0x40223394                set_txcap_reg
                0x40223414                ram_ana_inf_gating_en
                0x40223574                ram_restart_cal
                0x402235e0                wait_rfpll_cal_end
                0x40223650                ram_rfpll_set_freq
                0x40223724                ram_set_channel_freq
                0x40223a54                chip_60_set_channel
                0x40223c1c                chip_v6_set_chan_offset
                0x40223c5c                chip_v6_set_chan
                0x40223cd0                chip_v6_set_chan_wakeup
                0x40223d40                chip_v6_rf_init
                0x40223f4c                low_power_set
                0x40223fa8                test_tout
                0x402241e8                check_data_flag
                0x4022420c                phy_get_check_flag
                0x4022437c                phy_get_vdd33
 .irom0.text    0x402244f4     0x2134 ../lib\libmphy.a(phy_chip_v6_cal.o)
                               0x2388 (size before relaxing)
                0x402244f4                txbbgain2dcoindex
                0x40224514                dcoindex2txbbgain
                0x40224534                init_cal_dcoffset
                0x402245f8                set_rfanagain_dc_reg
                0x40224694                set_txdc_pbus
                0x40224700                get_rf_gain_qdb
                0x40224728                correct_rf_ana_gain
                0x40224830                get_sar_dout
                0x402248c8                cal_rf_ana_gain
                0x402249a0                meas_tone_pwr_db
                0x40224a10                tx_pwr_backoff
                0x40224b5c                get_fcc_1m2m_pwr_offset
                0x40224b98                ram_set_txbb_atten
                0x40224c28                txiq_get_mis_pwr
                0x40224ccc                txiq_cover
                0x40224ee4                ram_rfcal_txiq
                0x40225150                rc_cal
                0x40225310                get_target_power_offset
                0x40225418                get_pwctrl_correct
                0x40225470                tx_pwctrl_cal
                0x402257b0                tx_pwctrl_bg_init
                0x4022582c                tx_pwctrl_background
                0x402258e4                read_sar_dout
                0x40225948                ram_get_fm_sar_dout
                0x402259ec                ram_cal_tos_v60
                0x40225bcc                ram_get_bb_atten
                0x40225bfc                ram_rfcal_txcap
                0x40225dc0                ram_rfcal_pwrctrl
                0x40225fe8                ram_rxiq_get_mis
                0x402261b4                ram_rxiq_cover_mg_mp
                0x40226358                ram_rfcal_rxiq
                0x40226564                dpd_scale_set
                0x402265ac                dpd_mem_write
 .irom0.text    0x40226628      0xce2 ../lib\libmphy.a(phy_sleep.o)
                                0xf2e (size before relaxing)
                0x40226628                pm_usec2rtc
                0x4022665c                pm_rtc2usec
                0x40226668                pm_set_sleep_cycles
                0x40226690                pm_sleep_opt
                0x40226794                pm_wakeup_opt
                0x402267cc                get_chip_version
                0x4022680c                pm_sleep_opt_bb_off
                0x4022684c                pm_sleep_opt_bb_on
                0x40226898                pm_set_pll_xtal_wait_time
                0x402268e0                pm_prepare_to_sleep
                0x40226904                pm_sdio_nidle
                0x40226978                chg_lslp_mem_opt_8266
                0x402269a4                pm_goto_sleep
                0x40226af0                pm_wait4wakeup
                0x40226b28                pm_open_rf
                0x40226b6c                pm_sleep_set_mac
                0x40226bf0                pm_set_wakeup_mac
                0x40226c8c                pm_check_mac_idle
                0x40226ce4                pm_set_sleep_btco
                0x40226d7c                pm_set_wakeup_btco
                0x40226e80                pm_set_sleep_mode
                0x40226f50                pm_unmask_bt
                0x40226fb4                pm_wakeup_init
                0x402271b0                sleep_opt_8266
                0x402271d0                sleep_opt_bb_on_8266
                0x40227208                sleep_reset_analog_rtcreg_8266
 *fill*         0x4022730a        0x2 
 .irom0.text    0x4022730c     0x1136 ../lib\libmphy.a(phy_chip_v5_cal_romfunc.o)
                               0x124a (size before relaxing)
                0x4022730c                rom_cal_tos_v50
                0x402274b8                rom_pbus_dco_( [2]) static
                0x40227770                rom_rfcal_pwrctrl
                0x402278f8                rom_rfcal_rxiq
                0x40227b04                rom_rfcal_rxiq_set_reg
                0x40227c08                rom_rfcal_txcap
                0x40227e68                rom_rfcal_txiq
                0x402280b4                rom_rfcal_txiq_cover
                0x402280b8                rom_rfcal_txiq_set_reg
                0x40228194                rom_rxiq_cover_mg_mp
                0x402282e0                rom_set_txbb_atten
                0x402283b0                rom_set_txiq_cal
 *fill*         0x40228442        0x2 
 .irom0.text    0x40228444       0xde ../lib\libpp.a(lmac.o)
                                 0xf2 (size before relaxing)
                0x40228448                lmacInitAc
                0x4022847c                lmacInit
 *fill*         0x40228522        0x2 
 .irom0.text    0x40228524     0x1d5d ../lib\libpp.a(pm.o)
                               0x23e5 (size before relaxing)
                0x402285a8                pm_rtc_clock_cali_proc
                0x402285e0                pm_set_sleep_time
                0x40228ae8                pm_rf_is_closed
                0x40228b28                pm_set_sleep_type_from_upper
                0x40228be4                pm_get_sleep_type
                0x40228da4                uart_tx_flush
                0x40228da8                pm_suspend
                0x40228fa8                pm_shutdown
                0x402290a0                pm_reset_idle_sleep
                0x402290d8                pm_idle_sleep
                0x402290e4                pm_open
                0x402291d8                pm_onBcnRx
                0x40229750                vApplicationIdleHook
                0x40229780                freertos_set_idle_cb
                0x40229bac                pm_enable_gpio_wakeup
                0x40229bf0                pm_attach
                0x40229d04                pm_send_nullfunc
                0x40229eb0                pm_is_waked
                0x40229ec8                pm_is_open
                0x40229ee0                pm_scan_lock
                0x40229f10                pm_try_scan_unlock
                0x40229f28                pm_force_scan_unlock
                0x40229fe4                pm_scan_unlocked
                0x40229ff8                pm_allow_tx
                0x4022a018                pm_assoc_parse
                0x4022a030                pm_set_addr
                0x4022a050                pm_sleep_for
                0x4022a08c                pm_post
                0x4022a240                pm_get_idle_wait_time
 *fill*         0x4022a281        0x3 
 .irom0.text    0x4022a284     0x12c1 ../lib\libpp.a(pp.o)
                               0x15e9 (size before relaxing)
                0x4022a284                PPWdtReset
                0x4022a2ac                pp_soft_wdt_init
                0x4022a2d4                pp_soft_wdt_stop
                0x4022a300                pp_soft_wdt_restart
                0x4022a330                RxNodeNum
                0x4022a340                TxNodeNum
                0x4022a388                pp_disable_noise_timer
                0x4022a3a0                pp_enable_noise_timer
                0x4022a468                pp_noise_test
                0x4022a478                reset_noise_timer
                0x4022a4ac                pp_disable_idle_timer
                0x4022a4d0                pp_enable_idle_timer
                0x4022a4f8                pp_try_enable_idle_timer
                0x4022a530                ppPeocessRxPktHdr
                0x4022a594                ppTask
                0x4022a93c                ppTxPkt
                0x4022ab18                ppProcessWaitQ
                0x4022ab2c                ppRegisterTxCallback
                0x4022ab68                ppRecycleRxPkt
                0x4022abc8                ppCheckTxIdle
                0x4022aeb8                pp_tx_idle_timeout
                0x4022b12c                ppGetTxQFirstAvail_Locked
                0x4022b2e4                pp_attach
 *fill*         0x4022b545        0x3 
 .irom0.text    0x4022b548      0x296 ../lib\libpp.a(rate_control.o)
                                0x2a2 (size before relaxing)
                0x4022b794                RC_SetBasicRate
 *fill*         0x4022b7de        0x2 
 .irom0.text    0x4022b7e0      0x411 ../lib\libpp.a(trc.o)
                                0x46d (size before relaxing)
                0x4022b80c                rcUpdatePhyMode
                0x4022b8e8                rcAttach
                0x4022b934                rcGetTrc
                0x4022b93c                trc_onDisconnect
                0x4022b940                trc_onScanStart
                0x4022b960                trc_onScanDone
                0x4022b980                rc_enable_trc
                0x4022ba48                rc_get_mask
                0x4022ba5c                rc_disable_trc
                0x4022bad4                rc_disable_trc_by_interface
                0x4022baf4                rc_get_sta_trc
                0x4022bb34                rc_get_trc
                0x4022bba4                rc_get_trc_by_index
                0x4022bbc4                rc_only_sta_trc
 *fill*         0x4022bbf1        0x3 
 .irom0.text    0x4022bbf4      0xa43 ../lib\libpp.a(wdev.o)
                                0xb7f (size before relaxing)
                0x4022bbfc                wDev_Option_Init
                0x4022bccc                wDev_Enable_Beacon_Tsf
                0x4022bce8                wDev_Disable_Beacon_Tsf
                0x4022bd04                wDev_Set_Beacon_Int
                0x4022bd0c                wDev_Reset_TBTT
                0x4022bd3c                wDev_Get_Next_TBTT
                0x4022bfd8                wDev_Initialize
                0x4022c040                wDevForceAck6M
                0x4022c05c                wDev_SetMacAddress
                0x4022c0fc                wDev_SetRxPolicy
                0x4022c150                wDev_SetBssid
                0x4022c228                wDev_ClearBssid
                0x4022c260                wDev_Insert_KeyEntry
                0x4022c334                wDev_remove_KeyEntry
                0x4022c374                wDev_Crypto_Conf
                0x4022c410                wDev_Crypto_Disable
                0x4022c448                wDevDisableRx
                0x4022c460                wDevEnableRx
                0x4022c484                wdev_go_sniffer
                0x4022c568                wdev_exit_sniffer
 *fill*         0x4022c637        0x1 
 .irom0.text    0x4022c638      0x59f ../lib\libpp.a(esf_buf.o)
                                0x6bf (size before relaxing)
                0x4022c63c                esf_buf_alloc
                0x4022c870                esf_buf_recycle
                0x4022cacc                esf_buf_setup
 *fill*         0x4022cbd7        0x1 
 .irom0.text    0x4022cbd8      0x3a6 ../lib\libpp.a(if_hwctrl.o)
                                0x466 (size before relaxing)
                0x4022cbdc                ic_get_addr
                0x4022cbe8                ic_set_opmode
                0x4022cbfc                ic_enable_interface
                0x4022cc4c                ic_interface_enabled
                0x4022cc60                ic_disable_interface
                0x4022cca8                ic_is_pure_sta
                0x4022ccc4                ic_get_ptk_alg
                0x4022ccd4                ic_get_gtk_alg
                0x4022cce4                ic_set_ptk_alg
                0x4022ccf4                ic_set_gtk_alg
                0x4022cd04                ic_interface_is_p2p
                0x4022cd84                ic_set_vif
                0x4022cdf4                ic_set_sta
                0x4022ceb4                ic_bss_info_update
                0x4022cf10                ic_set_key
                0x4022cf6c                ic_remove_key
 *fill*         0x4022cf7e        0x2 
 .irom0.text    0x4022cf80      0x2fb ../lib\libnet80211.a(ieee80211.o)
                                0x3af (size before relaxing)
                0x4022d010                ieee80211_ifattach
                0x4022d054                ieee80211_mhz2ieee
                0x4022d0ac                ieee80211_chan2ieee
                0x4022d0cc                ieee80211_ieee2mhz
                0x4022d104                ieee80211_find_channel
                0x4022d12c                ieee80211_find_channel_byieee
                0x4022d174                wifi_mode_set
 *fill*         0x4022d27b        0x1 
 .irom0.text    0x4022d27c       0xc2 ../lib\libnet80211.a(ieee80211_crypto.o)
                                 0xca (size before relaxing)
                0x4022d27c                ieee80211_crypto_attach
                0x4022d280                ieee80211_crypto_available
                0x4022d284                ieee80211_crypto_setkey
                0x4022d288                ieee80211_crypto_encap
                0x4022d2d8                ieee80211_crypto_decap
 *fill*         0x4022d33e        0x2 
 .irom0.text    0x4022d340       0x45 ../lib\libnet80211.a(ieee80211_ets.o)
                                 0x49 (size before relaxing)
                0x4022d340                ieee80211_getmgtframe
 *fill*         0x4022d385        0x3 
 .irom0.text    0x4022d388      0xf5d ../lib\libnet80211.a(ieee80211_hostap.o)
                               0x1259 (size before relaxing)
                0x4022d6bc                ieee80211_hostap_attach
                0x4022d76c                hostap_handle_timer
                0x4022d7f0                hostap_input
                0x4022e0dc                wifi_softap_start
                0x4022e228                wifi_softap_stop
 *fill*         0x4022e2e5        0x3 
 .irom0.text    0x4022e2e8      0xa90 ../lib\libnet80211.a(ieee80211_ht.o)
                                0xb54 (size before relaxing)
                0x4022e2f8                ieee80211_ht_attach
                0x4022e348                ieee80211_ht_node_init
                0x4022e38c                ieee80211_ht_node_cleanup
                0x4022e3c4                ieee80211_parse_htcap
                0x4022e49c                ieee80211_ht_updateparams
                0x4022e5b4                ieee80211_setup_htrates
                0x4022e688                ieee80211_setup_basic_htrates
                0x4022e9f0                ieee80211_add_htcap
                0x4022ea0c                ieee80211_add_htcap_vendor
                0x4022eb30                ieee80211_add_htinfo
                0x4022eb4c                ieee80211_add_htinfo_vendor
 .irom0.text    0x4022ed78      0x8d8 ../lib\libnet80211.a(ieee80211_input.o)
                                0x950 (size before relaxing)
                0x4022ed78                ieee80211_deliver_data
                0x4022edcc                ieee80211_decap
                0x4022eed4                ieee80211_setup_rates
                0x4022ef40                ieee80211_alloc_challenge
                0x4022ef74                ieee80211_parse_beacon
                0x4022f3e0                ieee80211_parse_wpa
                0x4022f4f8                ieee80211_parse_rsn
                0x4022f5f4                ieee80211_parse_action
                0x4022f64c                ieee80211_setup_rateset
 .irom0.text    0x4022f650     0x17c3 ../lib\libnet80211.a(ieee80211_output.o)
                               0x1a2f (size before relaxing)
                0x4022f654                ieee80211_output_pbuf
                0x4022f8d4                ieee80211_send_setup
                0x4022fa00                ieee80211_mgmt_output
                0x4022faf4                ieee80211_tx_mgt_cb
                0x4022faf8                ieee80211_send_nulldata
                0x4022ff50                ieee80211_add_rates
                0x4022ff88                ieee80211_add_xrates
                0x40230024                ieee80211_send_probereq
                0x402301d0                ieee80211_getcapinfo
                0x4023022c                ieee80211_send_mgmt
                0x4023078c                ieee80211_alloc_proberesp
                0x40230988                ieee80211_send_proberesp
                0x40230cc8                ieee80211_beacon_alloc
 *fill*         0x40230e13        0x1 
 .irom0.text    0x40230e14      0x147 ../lib\libnet80211.a(ieee80211_phy.o)
                                0x16f (size before relaxing)
                0x40230e18                ieee80211_get_11g_ratetable
                0x40230e24                ieee80211_get_ratetable
                0x40230e3c                ieee80211_phy_init
                0x40230e70                ieee80211_phy_type_get
                0x40230e80                ieee80211_setup_ratetable
                0x40230eb4                ieee80211_compute_duration
                0x40230f34                ieee80211_dot11Rate_rix
 *fill*         0x40230f5b        0x1 
 .irom0.text    0x40230f5c      0x160 ../lib\libnet80211.a(ieee80211_power.o)
                                0x17c (size before relaxing)
                0x40230f5c                ieee80211_psq_init
                0x40230f74                ieee80211_psq_cleanup
                0x40230f7c                ieee80211_set_tim
                0x40230fbc                ieee80211_pwrsave
                0x40231088                ieee80211_node_pwrsave
 .irom0.text    0x402310bc      0x15b ../lib\libnet80211.a(ieee80211_proto.o)
                                0x177 (size before relaxing)
                0x402310c0                ieee80211_proto_attach
                0x402310e8                ieee80211_set_shortslottime
                0x40231104                ieee80211_iserp_rateset
                0x40231198                ieee80211_setbasicrates
                0x402311ac                ieee80211_addbasicrates
                0x402311c0                ieee80211_wme_initparams
                0x402311c4                ieee80211_wme_updateparams
                0x402311c8                ieee80211_mlme_connect_bss
 *fill*         0x40231217        0x1 
 .irom0.text    0x40231218      0xd0d ../lib\libnet80211.a(ieee80211_scan.o)
                               0x1021 (size before relaxing)
                0x40231228                ieee80211_scan_attach
                0x402312a4                scan_start
                0x40231384                scan_pm_channel_op_cb
                0x4023151c                scan_cancel
                0x40231628                scan_add_bssid
                0x4023164c                scan_remove_bssid
                0x40231658                scan_hidden_ssid
                0x40231660                scan_add_probe_ssid
                0x402316a0                scan_remove_probe_ssid
                0x402317d4                scan_clear_channles
                0x40231844                scan_set_desChan
                0x40231850                scan_get_type
                0x40231858                cannel_scan_connect_state
                0x40231870                scan_connect_state
                0x402318b8                scan_check_hidden
                0x402318e4                scan_profile_check
                0x40231c54                scan_parse_beacon
 *fill*         0x40231f25        0x3 
 .irom0.text    0x40231f28      0xb3d ../lib\libnet80211.a(ieee80211_sta.o)
                                0xd0d (size before relaxing)
                0x40231f50                sta_status_set
                0x40231f88                ieee80211_sta_new_state
                0x40232154                sta_input
                0x402324c8                ieee80211_parse_wmeparams
                0x4023299c                wifi_station_start
                0x40232a20                wifi_station_stop
 *fill*         0x40232a65        0x3 
 .irom0.text    0x40232a68      0x32e ../lib\libnet80211.a(wl_chm.o)
                                0x3da (size before relaxing)
                0x40232a74                chm_init
                0x40232b20                chm_acquire_lock
                0x40232b64                chm_release_lock
                0x40232b78                chm_start_op
                0x40232c18                chm_end_op
                0x40232c60                chm_cancel_op
                0x40232c94                chm_return_home_channel
                0x40232cc8                chm_set_current_channel
                0x40232d40                chm_freq2index
                0x40232d68                chm_check_same_channel
 *fill*         0x40232d96        0x2 
 .irom0.text    0x40232d98     0x1315 ../lib\libnet80211.a(wl_cnx.o)
                               0x172d (size before relaxing)
                0x40232da4                cnx_attach
                0x40232de4                cnx_sta_connect_led_timer_cb
                0x40232e38                cnx_sta_connect_cmd
                0x40232edc                cnx_sta_scan_cmd
                0x40233130                cnx_connect_timeout
                0x40233198                cnx_start_handoff_cb
                0x402335a8                cnx_bss_alloc
                0x40233658                cnx_rc_search
                0x40233720                cnx_add_rc
                0x4023380c                cnx_remove_rc
                0x402338e0                cnx_rc_update_rssi
                0x40233964                cnx_rc_update_state_metric
                0x402339d0                cnx_rc_update_age
                0x402339f4                cnx_update_bss
                0x40233a2c                cnx_update_bss_more
                0x40233bb8                cnx_sta_leave
                0x40233cd8                cnx_sta_associated
                0x40233d34                cnx_node_alloc
                0x40233d94                cnx_node_remove
                0x40233e08                cnx_node_search
                0x40233e68                cnx_node_leave
                0x40233f24                cnx_node_join
 *fill*         0x402340ad        0x3 
 .irom0.text    0x402340b0      0x161 ../lib\libnet80211.a(ieee80211_action.o)
                                0x181 (size before relaxing)
                0x402340c0                ieee80211_send_action_register
                0x402340f4                ieee80211_send_action_unregister
                0x40234108                ieee80211_send_action
                0x4023416c                ieee80211_recv_action_register
                0x402341a0                ieee80211_recv_action_unregister
                0x402341b4                ieee80211_recv_action
 *fill*         0x40234211        0x3 
 .irom0.text    0x40234214      0x282 ../lib\libwpa.a(ap_config.o)
                                0x2ba (size before relaxing)
                0x40234218                hostapd_config_defaults_bss
                0x40234260                hostapd_config_defaults
                0x402342cc                hostapd_mac_comp
                0x402342e4                hostapd_mac_comp_empty
                0x4023433c                hostapd_setup_wpa_psk
                0x4023436c                hostapd_wep_key_cmp
                0x402343bc                hostapd_maclist_found
                0x40234428                hostapd_rate_found
                0x40234444                hostapd_get_psk
 *fill*         0x40234496        0x2 
 .irom0.text    0x40234498      0x250 ../lib\libwpa.a(common.o)
                                0x28c (size before relaxing)
                0x40234498                inc_byte_array
                0x402344ec                hex2byte
                0x40234520                hexstr2bin
                0x4023456c                wpa_get_ntp_timestamp
                0x40234600                wpa_config_parse_string
 .irom0.text    0x402346e8       0x5b ../lib\libwpa.a(os_xtensa.o)
                                 0x63 (size before relaxing)
                0x402346e8                os_get_time
                0x402346f0                os_random
                0x40234704                os_get_random
 *fill*         0x40234743        0x1 
 .irom0.text    0x40234744      0x14d ../lib\libwpa.a(sha1-pbkdf2.o)
                                0x165 (size before relaxing)
                0x4023482c                pbkdf2_sha1
 *fill*         0x40234891        0x3 
 .irom0.text    0x40234894     0x1ca7 ../lib\libwpa.a(wpa_auth.o)
                               0x1f47 (size before relaxing)
                0x402349d4                wpa_auth_for_each_sta
                0x40234b38                wpa_init
                0x40234bac                wpa_auth_sta_init
                0x40234bec                wpa_auth_sta_associated
                0x40234c68                wpa_auth_sta_no_wpa
                0x40234cb4                wpa_auth_sta_deinit
                0x40234d90                wpa_receive
                0x402351fc                __wpa_send_eapol
                0x402356e0                wpa_remove_ptk
                0x4023572c                wpa_auth_sm_event
 *fill*         0x4023653b        0x1 
 .irom0.text    0x4023653c      0x569 ../lib\libwpa.a(wpa_auth_ie.o)
                                0x5d5 (size before relaxing)
                0x40236600                wpa_write_rsn_ie
                0x40236708                wpa_auth_gen_wpa_ie
                0x4023678c                wpa_add_kde
                0x402367f8                wpa_validate_wpa_ie
                0x402369f8                wpa_parse_kde_ies
                0x40236a94                wpa_auth_uses_mfp
 *fill*         0x40236aa5        0x3 
 .irom0.text    0x40236aa8     0x1464 ../lib\libwpa.a(wpa.o)
                               0x16b8 (size before relaxing)
                0x40237a14                wpa_sm_rx_eapol
                0x40237b78                wpa_register
                0x40237ba4                wpa_set_profile
                0x40237bb4                wpa_set_pmk
                0x40237be0                wpa_set_bss
                0x40237dc8                pp_michael_mic_failure
                0x40237e5c                eapol_txcb
                0x40237ee4                wpa_sm_set_state
 .irom0.text    0x40237f0c      0x732 ../lib\libwpa.a(wpa_common.o)
                                0x7ca (size before relaxing)
                0x40238054                wpa_parse_wpa_ie_rsn
                0x402381e8                wpa_parse_wpa_ie_wpa
                0x4023836c                wpa_eapol_key_mic
                0x402383ac                wpa_compare_rsn_ie
                0x402383d4                wpa_pmk_to_ptk
                0x402384c0                rsn_pmkid
                0x402384f4                wpa_cipher_key_len
                0x40238518                wpa_cipher_to_alg
                0x40238540                wpa_cipher_to_suite
                0x40238594                rsn_cipher_put_suites
                0x402385f4                wpa_cipher_put_suites
 *fill*         0x4023863e        0x2 
 .irom0.text    0x40238640      0x325 ../lib\libwpa.a(wpa_ie.o)
                                0x341 (size before relaxing)
                0x40238640                wpa_parse_wpa_ie
                0x40238734                wpa_supplicant_parse_ies
                0x40238934                wpa_gen_wpa_ie
 *fill*         0x40238965        0x3 
 .irom0.text    0x40238968      0x2d3 ../lib\libwpa.a(wpa_main.o)
                                0x387 (size before relaxing)
                0x40238968                ppInstallKey
                0x40238a70                wpa_config_profile
                0x40238aa8                wpa_config_bss
                0x40238ae8                wpa_config_assoc_ie
                0x40238afc                dhcp_bind_check
                0x40238b28                eagle_auth_done
                0x40238bdc                wpa_neg_complete
                0x40238c04                wpa_attach
 *fill*         0x40238c3b        0x1 
 .irom0.text    0x40238c3c       0xd6 ../lib\libwpa.a(wpas_glue.o)
                                 0xe2 (size before relaxing)
                0x40238cb0                wpa_sm_alloc_eapol
                0x40238cec                wpa_sm_deauthenticate
                0x40238d08                wpa_sm_mlme_setprotection
                0x40238d0c                wpa_sm_get_beacon_ie
                0x40238d10                wpa_sm_disassociate
 *fill*         0x40238d12        0x2 
 .irom0.text    0x40238d14       0xf0 ../lib\libwpa.a(aes-unwrap.o)
                                0x114 (size before relaxing)
                0x40238d14                aes_unwrap
 .irom0.text    0x40238e04       0xdf ../lib\libwpa.a(aes-wrap.o)
                                0x103 (size before relaxing)
                0x40238e04                aes_wrap
 *fill*         0x40238ee3        0x1 
 .irom0.text    0x40238ee4      0x14f ../lib\libwpa.a(md5.o)
                                0x16b (size before relaxing)
                0x40238ee4                hmac_md5_vector
                0x40239014                hmac_md5
 *fill*         0x40239033        0x1 
 .irom0.text    0x40239034      0x9b4 ../lib\libwpa.a(md5-internal.o)
                                0x9dc (size before relaxing)
                0x40239034                md5_vector
                0x40239098                MD5Init
                0x402390b4                MD5Update
                0x40239174                MD5Final
 .irom0.text    0x402399e8      0x216 ../lib\libwpa.a(sha1.o)
                                0x23a (size before relaxing)
                0x402399e8                hmac_sha1_vector
                0x40239b1c                hmac_sha1
                0x40239b3c                sha1_prf
 *fill*         0x40239bfe        0x2 
 .irom0.text    0x40239c00     0x14fb ../lib\libwpa.a(sha1-internal.o)
                               0x157b (size before relaxing)
                0x40239c00                sha1_vector
                0x40239c70                SHA1Transform
                0x4023af5c                SHA1Init
                0x4023af80                SHA1Update
                0x4023b01c                SHA1Final
 *fill*         0x4023b0fb        0x1 
 .irom0.text    0x4023b0fc      0x557 ../lib\libwpa.a(aes-internal-dec.o)
                                0x573 (size before relaxing)
                0x4023b104                rijndaelKeySetupDec
                0x4023b1d8                aes_decrypt_init
                0x4023b62c                aes_decrypt
                0x4023b63c                aes_decrypt_deinit
 *fill*         0x4023b653        0x1 
 .irom0.text    0x4023b654      0x47d ../lib\libwpa.a(aes-internal-enc.o)
                                0x49d (size before relaxing)
                0x4023b654                rijndaelEncrypt
                0x4023ba6c                aes_encrypt_init
                0x4023ba9c                aes_encrypt
                0x4023baac                aes_encrypt_deinit
 *fill*         0x4023bad1        0x3 
 .irom0.text    0x4023bad4      0x10a ../lib\libwpa.a(aes-internal.o)
                                0x11a (size before relaxing)
                0x4023bad8                rijndaelKeySetupEnc
 *fill*         0x4023bbde        0x2 
 .irom0.text    0x4023bbe0      0x2f7 ../lib\libmain.a(libc.o)
                                0x31b (size before relaxing)
                0x4023bbe4                strtol
                0x4023bcf4                strcat
                0x4023bd14                strncat
                0x4023bd44                strspn
                0x4023bd7c                strcspn
                0x4023bdb4                strtok_r
                0x4023be0c                strtok
                0x4023be20                strrchr
                0x4023be4c                strdup
                0x4023be8c                strchr
                0x4023bea8                srand
                0x4023beb0                atoi
                0x4023bec4                atol
 *fill*         0x4023bed7        0x1 
 .irom0.text    0x4023bed8       0xeb ../lib\liblwip.a(ethernetif.o)
                                 0xfb (size before relaxing)
                0x4023bf34                ethernetif_input
                0x4023bf9c                ethernetif_init
 *fill*         0x4023bfc3        0x1 
 .irom0.text    0x4023bfc4      0x229 ../lib\liblwip.a(netdb.o)
                                0x260 (size before relaxing)
                0x4023bfcc                lwip_gethostbyname
                0x4023c01c                lwip_gethostbyname_r
                0x4023c0cc                lwip_freeaddrinfo
                0x4023c0f0                lwip_getaddrinfo
 *fill*         0x4023c1ed        0x3 
 .irom0.text    0x4023c1f0      0x131 ../lib\libnet80211.a(ieee80211_crypto_ccmp.o)
                                0x135 (size before relaxing)
 *fill*         0x4023c321        0x3 
 .irom0.text    0x4023c324      0x15b ../lib\libnet80211.a(ieee80211_crypto_tkip.o)
                                0x167 (size before relaxing)
 *fill*         0x4023c47f        0x1 
 .irom0.text    0x4023c480       0x7c ../lib\libnet80211.a(ieee80211_crypto_wep.o)
                                 0x80 (size before relaxing)
 .irom0.literal
                0x4023c4fc        0x0 ../lib\libmain.a(app_main.o)
 *fill*         0x4023c4fc        0x4 
 .irom.text     0x4023c500       0x80 ../lib\libmain.a(app_main.o)
 .irom0.literal
                0x4023c580        0x0 ../lib\libmain.a(ets_timer.o)
 *fill*         0x4023c580        0x0 
 .irom0.literal
                0x4023c580        0x0 ../lib\libmain.a(misc.o)
 .irom0.literal
                0x4023c580        0x0 ../lib\libmain.a(uart.o)
 *fill*         0x4023c580        0x0 
 .irom0.literal
                0x4023c580        0x0 ../lib\libmain.a(user_interface.o)
 *fill*         0x4023c580        0x0 
 .irom0.literal
                0x4023c580        0x0 ../lib\libmain.a(timers.o)
 *fill*         0x4023c580        0x0 
 .irom0.literal
                0x4023c580        0x0 ../lib\libfreertos.a(port.o)
 *fill*         0x4023c580        0x0 
 .irom0.literal
                0x4023c580        0x0 ../lib\libfreertos.a(queue.o)
 *fill*         0x4023c580        0x0 
 .irom0.literal
                0x4023c580        0x0 ../lib\libfreertos.a(tasks.o)
 *fill*         0x4023c580        0x0 
 .irom0.literal
                0x4023c580        0x0 ../lib\libfreertos.a(timers.o)
 .irom0.literal
                0x4023c580        0x0 ../lib\libfreertos.a(list.o)
 .irom0.text    0x4023c580       0x4c ../lib\libfreertos.a(list.o)
                0x4023c580                vListInitialise
                0x4023c594                vListInitialiseItem
                0x4023c59c                vListInsert
 .irom0.literal
                0x4023c5cc        0x0 ../lib\liblwip.a(dhcp.o)
 *fill*         0x4023c5cc        0x0 
 .irom0.literal
                0x4023c5cc        0x0 ../lib\liblwip.a(dns.o)
 *fill*         0x4023c5cc        0x0 
 .irom0.literal
                0x4023c5cc        0x0 ../lib\liblwip.a(etharp.o)
 *fill*         0x4023c5cc        0x0 
 .irom0.literal
                0x4023c5cc        0x0 ../lib\liblwip.a(ip4_addr.o)
 .irom0.literal
                0x4023c5cc        0x0 ../lib\liblwip.a(ip4.o)
 .irom0.literal
                0x4023c5cc        0x0 ../lib\liblwip.a(ip_frag.o)
 *fill*         0x4023c5cc        0x0 
 .irom0.literal
                0x4023c5cc        0x0 ../lib\liblwip.a(netif.o)
 *fill*         0x4023c5cc        0x0 
 .irom0.literal
                0x4023c5cc        0x0 ../lib\liblwip.a(pbuf.o)
 *fill*         0x4023c5cc        0x0 
 .irom0.literal
                0x4023c5cc        0x0 ../lib\liblwip.a(raw.o)
 *fill*         0x4023c5cc        0x0 
 .irom0.literal
                0x4023c5cc        0x0 ../lib\liblwip.a(stats.o)
 .irom0.text    0x4023c5cc        0x2 ../lib\liblwip.a(stats.o)
                0x4023c5cc                stats_init
 *fill*         0x4023c5ce        0x2 
 .irom0.literal
                0x4023c5d0        0x0 ../lib\liblwip.a(sys_arch.o)
 *fill*         0x4023c5d0        0x0 
 .irom0.literal
                0x4023c5d0        0x0 ../lib\liblwip.a(tcp_in.o)
 *fill*         0x4023c5d0        0x0 
 .irom0.literal
                0x4023c5d0        0x0 ../lib\liblwip.a(tcpip.o)
 *fill*         0x4023c5d0        0x0 
 .irom0.literal
                0x4023c5d0        0x0 ../lib\liblwip.a(tcp.o)
 *fill*         0x4023c5d0        0x0 
 .irom0.literal
                0x4023c5d0        0x0 ../lib\liblwip.a(tcp_out.o)
 *fill*         0x4023c5d0        0x0 
 .irom0.literal
                0x4023c5d0        0x0 ../lib\liblwip.a(timers.o)
 *fill*         0x4023c5d0        0x0 
 .irom0.literal
                0x4023c5d0        0x0 ../lib\liblwip.a(udp.o)
 *fill*         0x4023c5d0        0x0 
 .irom0.literal
                0x4023c5d0        0x0 ../lib\liblwip.a(icmp.o)
 *fill*         0x4023c5d0        0x0 
 .irom0.literal
                0x4023c5d0        0x0 ../lib\liblwip.a(inet_chksum.o)
 .irom0.text    0x4023c5d0      0x2e2 ../lib\liblwip.a(inet_chksum.o)
                0x4023c5d0                lwip_standard_chksum
                0x4023c6f4                inet_chksum_pseudo
                0x4023c7f0                inet_chksum_pseudo_partial
                0x4023c828                inet_chksum
                0x4023c840                inet_chksum_pbuf
 *fill*         0x4023c8b2        0x2 
 .irom0.literal
                0x4023c8b4        0x0 ../lib\liblwip.a(init.o)
 .irom0.literal
                0x4023c8b4        0x0 ../lib\liblwip.a(sockets.o)
 *fill*         0x4023c8b4        0x0 
 .irom0.literal
                0x4023c8b4        0x0 ../lib\liblwip.a(api_lib.o)
 *fill*         0x4023c8b4        0x0 
 .irom0.literal
                0x4023c8b4        0x0 ../lib\liblwip.a(api_msg.o)
 *fill*         0x4023c8b4        0x0 
 .irom0.literal
                0x4023c8b4        0x0 ../lib\liblwip.a(netbuf.o)
 .irom0.literal
                0x4023c8b4        0x0 user/.output/eagle/lib/libuser.a(user_main.o)
 *fill*         0x4023c8b4        0x0 
 .irom.text     0x4023c8b4       0x80 user/.output/eagle/lib/libuser.a(user_main.o)
                0x4023c8b4                fakePwm
 .irom0.literal
                0x4023c934        0x0 user/.output/eagle/lib/libuser.a(spiram_fifo.o)
 *fill*         0x4023c934        0x0 
 .irom0.literal
                0x4023c934        0x0 user/.output/eagle/lib/libuser.a(iram_buf.o)
 *fill*         0x4023c934        0x0 
 .irom0.literal
                0x4023c934        0x0 mad/.output/eagle/lib/libmad.a(stream.o)
 .irom0.literal
                0x4023c934        0x0 mad/.output/eagle/lib/libmad.a(synth.o)
 *fill*         0x4023c934        0x0 
 .irom.text     0x4023c934      0x880 mad/.output/eagle/lib/libmad.a(synth.o)
 .irom.text     0x4023d1b4      0x200 mad/.output/eagle/lib/libmad.a(bit.o)
 .irom0.literal
                0x4023d3b4        0x0 mad/.output/eagle/lib/libmad.a(frame.o)
 *fill*         0x4023d3b4        0x0 
 .irom.text     0x4023d3b4      0x144 mad/.output/eagle/lib/libmad.a(frame.o)
 .irom0.literal
                0x4023d4f8        0x0 mad/.output/eagle/lib/libmad.a(timer.o)
 *fill*         0x4023d4f8        0x0 
 .irom0.literal
                0x4023d4f8        0x0 mad/.output/eagle/lib/libmad.a(layer3.o)
 *fill*         0x4023d4f8        0x0 
 .irom.text     0x4023d4f8     0x837c mad/.output/eagle/lib/libmad.a(layer3.o)
 .irom.text     0x40245874     0x23bc mad/.output/eagle/lib/libmad.a(huffman.o)
                0x40245874                mad_huff_pair_table
 .irom0.literal
                0x40247c30        0x0 driver/.output/eagle/lib/libdriver.a(uart.o)
 *fill*         0x40247c30        0x0 
 .irom0.literal
                0x40247c30        0x0 driver/.output/eagle/lib/libdriver.a(i2s_freertos.o)
 *fill*         0x40247c30        0x0 
 .irom0.literal
                0x40247c30        0x0 ../lib\libmphy.a(phy_chip_v5_ana_romfunc.o)
 *fill*         0x40247c30        0x0 
 .irom0.literal
                0x40247c30        0x0 ../lib\libmphy.a(phy_chip_v5_romfunc.o)
 .irom0.literal
                0x40247c30        0x0 ../lib\libmphy.a(phy.o)
 *fill*         0x40247c30        0x0 
 .irom0.literal
                0x40247c30        0x0 ../lib\libmphy.a(phy_chip_v6.o)
 .irom0.literal
                0x40247c30        0x0 ../lib\libmphy.a(phy_chip_v6_ana.o)
 .irom0.literal
                0x40247c30        0x0 ../lib\libmphy.a(phy_chip_v6_cal.o)
 .irom0.literal
                0x40247c30        0x0 ../lib\libmphy.a(phy_sleep.o)
 *fill*         0x40247c30        0x0 
 .irom0.literal
                0x40247c30        0x0 ../lib\libmphy.a(phy_chip_v5_cal_romfunc.o)
 *fill*         0x40247c30        0x0 
 .irom0.literal
                0x40247c30        0x0 ../lib\libpp.a(lmac.o)
 *fill*         0x40247c30        0x0 
 .irom0.literal
                0x40247c30        0x0 ../lib\libpp.a(pm.o)
 *fill*         0x40247c30        0x0 
 .irom0.literal
                0x40247c30        0x0 ../lib\libpp.a(pp.o)
 *fill*         0x40247c30        0x0 
 .irom0.literal
                0x40247c30        0x0 ../lib\libpp.a(rate_control.o)
 *fill*         0x40247c30        0x0 
 .irom0.literal
                0x40247c30        0x0 ../lib\libpp.a(trc.o)
 *fill*         0x40247c30        0x0 
 .irom0.literal
                0x40247c30        0x0 ../lib\libpp.a(wdev.o)
 *fill*         0x40247c30        0x0 
 .irom0.literal
                0x40247c30        0x0 ../lib\libpp.a(esf_buf.o)
 *fill*         0x40247c30        0x0 
 .irom0.literal
                0x40247c30        0x0 ../lib\libpp.a(if_hwctrl.o)
 *fill*         0x40247c30        0x0 
 .irom0.literal
                0x40247c30        0x0 ../lib\libnet80211.a(ieee80211.o)
 *fill*         0x40247c30        0x0 
 .irom0.literal
                0x40247c30        0x0 ../lib\libnet80211.a(ieee80211_crypto.o)
 *fill*         0x40247c30        0x0 
 .irom0.literal
                0x40247c30        0x0 ../lib\libnet80211.a(ieee80211_ets.o)
 *fill*         0x40247c30        0x0 
 .irom0.literal
                0x40247c30        0x0 ../lib\libnet80211.a(ieee80211_hostap.o)
 *fill*         0x40247c30        0x0 
 .irom0.literal
                0x40247c30        0x0 ../lib\libnet80211.a(ieee80211_ht.o)
 .irom0.literal
                0x40247c30        0x0 ../lib\libnet80211.a(ieee80211_input.o)
 .irom0.literal
                0x40247c30        0x0 ../lib\libnet80211.a(ieee80211_output.o)
 *fill*         0x40247c30        0x0 
 .irom0.literal
                0x40247c30        0x0 ../lib\libnet80211.a(ieee80211_phy.o)
 *fill*         0x40247c30        0x0 
 .irom0.literal
                0x40247c30        0x0 ../lib\libnet80211.a(ieee80211_power.o)
 .irom0.literal
                0x40247c30        0x0 ../lib\libnet80211.a(ieee80211_proto.o)
 *fill*         0x40247c30        0x0 
 .irom0.literal
                0x40247c30        0x0 ../lib\libnet80211.a(ieee80211_scan.o)
 *fill*         0x40247c30        0x0 
 .irom0.literal
                0x40247c30        0x0 ../lib\libnet80211.a(ieee80211_sta.o)
 *fill*         0x40247c30        0x0 
 .irom0.literal
                0x40247c30        0x0 ../lib\libnet80211.a(wl_chm.o)
 *fill*         0x40247c30        0x0 
 .irom0.literal
                0x40247c30        0x0 ../lib\libnet80211.a(wl_cnx.o)
 *fill*         0x40247c30        0x0 
 .irom0.literal
                0x40247c30        0x0 ../lib\libnet80211.a(ieee80211_action.o)
 *fill*         0x40247c30        0x0 
 .irom0.literal
                0x40247c30        0x0 ../lib\libwpa.a(ap_config.o)
 *fill*         0x40247c30        0x0 
 .irom0.literal
                0x40247c30        0x0 ../lib\libwpa.a(common.o)
 .irom0.literal
                0x40247c30        0x0 ../lib\libwpa.a(os_xtensa.o)
 *fill*         0x40247c30        0x0 
 .irom0.literal
                0x40247c30        0x0 ../lib\libwpa.a(sha1-pbkdf2.o)
 *fill*         0x40247c30        0x0 
 .irom0.literal
                0x40247c30        0x0 ../lib\libwpa.a(wpa_auth.o)
 *fill*         0x40247c30        0x0 
 .irom0.literal
                0x40247c30        0x0 ../lib\libwpa.a(wpa_auth_ie.o)
 *fill*         0x40247c30        0x0 
 .irom0.literal
                0x40247c30        0x0 ../lib\libwpa.a(wpa.o)
 .irom0.literal
                0x40247c30        0x0 ../lib\libwpa.a(wpa_common.o)
 *fill*         0x40247c30        0x0 
 .irom0.literal
                0x40247c30        0x0 ../lib\libwpa.a(wpa_debug.o)
 .irom0.text    0x40247c30        0x8 ../lib\libwpa.a(wpa_debug.o)
                0x40247c30                eloop_cancel_timeout
                0x40247c34                eloop_register_timeout
 .irom0.literal
                0x40247c38        0x0 ../lib\libwpa.a(wpa_ie.o)
 *fill*         0x40247c38        0x0 
 .irom0.literal
                0x40247c38        0x0 ../lib\libwpa.a(wpa_main.o)
 *fill*         0x40247c38        0x0 
 .irom0.literal
                0x40247c38        0x0 ../lib\libwpa.a(wpas_glue.o)
 *fill*         0x40247c38        0x0 
 .irom0.literal
                0x40247c38        0x0 ../lib\libwpa.a(aes-unwrap.o)
 .irom0.literal
                0x40247c38        0x0 ../lib\libwpa.a(aes-wrap.o)
 *fill*         0x40247c38        0x0 
 .irom0.literal
                0x40247c38        0x0 ../lib\libwpa.a(md5.o)
 *fill*         0x40247c38        0x0 
 .irom0.literal
                0x40247c38        0x0 ../lib\libwpa.a(md5-internal.o)
 .irom0.literal
                0x40247c38        0x0 ../lib\libwpa.a(rc4.o)
 .irom0.text    0x40247c38       0xdb ../lib\libwpa.a(rc4.o)
                0x40247c38                rc4_skip
 *fill*         0x40247d13        0x1 
 .irom0.literal
                0x40247d14        0x0 ../lib\libwpa.a(sha1.o)
 *fill*         0x40247d14        0x0 
 .irom0.literal
                0x40247d14        0x0 ../lib\libwpa.a(sha1-internal.o)
 *fill*         0x40247d14        0x0 
 .irom0.literal
                0x40247d14        0x0 ../lib\libwpa.a(aes-internal-dec.o)
 *fill*         0x40247d14        0x0 
 .irom0.literal
                0x40247d14        0x0 ../lib\libwpa.a(aes-internal-enc.o)
 *fill*         0x40247d14        0x0 
 .irom0.literal
                0x40247d14        0x0 ../lib\libwpa.a(aes-internal.o)
 *fill*         0x40247d14        0xc 
 .irom.text     0x40247d20      0x900 ../lib\libwpa.a(aes-internal.o)
                0x40247d20                Te0
                0x40248120                Td0
                0x40248520                Td4s_rom
 .irom0.literal
                0x40248620        0x0 ../lib\libmain.a(libc.o)
 *fill*         0x40248620        0x0 
 .irom0.literal
                0x40248620        0x0 ../lib\liblwip.a(ethernetif.o)
 *fill*         0x40248620        0x0 
 .irom0.literal
                0x40248620        0x0 ../lib\liblwip.a(netdb.o)
 .irom0.literal
                0x40248620        0x0 main/.output/eagle/lib/libaddmmain.a(phy_chip_v6_unused.o)
 .irom0.text    0x40248620        0x8 main/.output/eagle/lib/libaddmmain.a(phy_chip_v6_unused.o)
                0x40248620                chip_v6_set_sense
                0x40248624                chip_v6_unset_chanfreq
 .irom0.literal
                0x40248628        0x0 ../lib\libnet80211.a(ieee80211_crypto_ccmp.o)
 *fill*         0x40248628        0x0 
 .irom0.literal
                0x40248628        0x0 ../lib\libnet80211.a(ieee80211_crypto_tkip.o)
 *fill*         0x40248628        0x0 
 .irom0.literal
                0x40248628        0x0 ../lib\libnet80211.a(ieee80211_crypto_wep.o)
                0x40248628                _irom0_text_end = ABSOLUTE (.)
                0x400047f0                PROVIDE (Cache_Read_Disable, 0x400047f0)
                0x40004678                PROVIDE (Cache_Read_Enable, 0x40004678)
                0x400035a0                PROVIDE (FilePacketSendReqMsgProc, 0x400035a0)
                0x4000368c                PROVIDE (FlashDwnLdParamCfgMsgProc, 0x4000368c)
                0x40003538                PROVIDE (FlashDwnLdStartMsgProc, 0x40003538)
                0x40003658                PROVIDE (FlashDwnLdStopReqMsgProc, 0x40003658)
                0x40003f4c                PROVIDE (GetUartDevice, 0x40003f4c)
                0x40009900                PROVIDE (MD5Final, 0x40009900)
                0x40009818                PROVIDE (MD5Init, 0x40009818)
                0x40009834                PROVIDE (MD5Update, 0x40009834)
                0x400036c4                PROVIDE (MemDwnLdStartMsgProc, 0x400036c4)
                0x4000377c                PROVIDE (MemDwnLdStopReqMsgProc, 0x4000377c)
                0x400036f0                PROVIDE (MemPacketSendReqMsgProc, 0x400036f0)
                0x40003eac                PROVIDE (RcvMsg, 0x40003eac)
                0x4000b648                PROVIDE (SHA1Final, 0x4000b648)
                0x4000b584                PROVIDE (SHA1Init, 0x4000b584)
                0x4000a364                PROVIDE (SHA1Transform, 0x4000a364)
                0x4000b5a8                PROVIDE (SHA1Update, 0x4000b5a8)
                0x400043c8                PROVIDE (SPI_read_status, 0x400043c8)
                0x40004400                PROVIDE (SPI_write_status, 0x40004400)
                0x4000443c                PROVIDE (SPI_write_enable, 0x4000443c)
                0x4000448c                PROVIDE (Wait_SPI_Idle, 0x4000448c)
                0x40004b44                PROVIDE (SPIEraseArea, 0x40004b44)
                0x400049b4                PROVIDE (SPIEraseBlock, 0x400049b4)
                0x40004984                PROVIDE (SPIEraseChip, 0x40004984)
                0x40004a00                PROVIDE (SPIEraseSector, 0x40004a00)
                0x400048a8                PROVIDE (SPILock, 0x400048a8)
                0x40004c2c                PROVIDE (SPIParamCfg, 0x40004c2c)
                0x40004b1c                PROVIDE (SPIRead, 0x40004b1c)
                0x400048ec                PROVIDE (SPIReadModeCnfig, 0x400048ec)
                0x40004878                PROVIDE (SPIUnlock, 0x40004878)
                0x40004a4c                PROVIDE (SPIWrite, 0x40004a4c)
                0x40003f58                PROVIDE (SelectSpiFunction, 0x40003f58)
                0x40003cf4                PROVIDE (SendMsg, 0x40003cf4)
                0x40003230                PROVIDE (UartConnCheck, 0x40003230)
                0x400037a0                PROVIDE (UartConnectProc, 0x400037a0)
                0x40003368                PROVIDE (UartDwnLdProc, 0x40003368)
                0x40003ef4                PROVIDE (UartGetCmdLn, 0x40003ef4)
                0x4000381c                PROVIDE (UartRegReadProc, 0x4000381c)
                0x400037ac                PROVIDE (UartRegWriteProc, 0x400037ac)
                0x40003c30                PROVIDE (UartRxString, 0x40003c30)
                0x40003a14                PROVIDE (Uart_Init, 0x40003a14)
                0x40000010                PROVIDE (_DebugExceptionVector, 0x40000010)
                0x40000070                PROVIDE (_DoubleExceptionVector, 0x40000070)
                0x40000030                PROVIDE (_KernelExceptionVector, 0x40000030)
                0x40000020                PROVIDE (_NMIExceptionVector, 0x40000020)
                0x400000a4                PROVIDE (_ResetHandler, 0x400000a4)
                0x40000080                PROVIDE (_ResetVector, 0x40000080)
                0x40000050                PROVIDE (_UserExceptionVector, 0x40000050)
                0x4000c538                PROVIDE (__adddf3, 0x4000c538)
                0x4000c180                PROVIDE (__addsf3, 0x4000c180)
                0x4000cb94                PROVIDE (__divdf3, 0x4000cb94)
                0x4000ce60                PROVIDE (__divdi3, 0x4000ce60)
                0x4000dc88                PROVIDE (__divsi3, 0x4000dc88)
                0x4000cdfc                PROVIDE (__extendsfdf2, 0x4000cdfc)
                0x4000ccb8                PROVIDE (__fixdfsi, 0x4000ccb8)
                0x4000cd00                PROVIDE (__fixunsdfsi, 0x4000cd00)
                0x4000c4c4                PROVIDE (__fixunssfsi, 0x4000c4c4)
                0x4000e2f0                PROVIDE (__floatsidf, 0x4000e2f0)
                0x4000e2ac                PROVIDE (__floatsisf, 0x4000e2ac)
                0x4000e2e8                PROVIDE (__floatunsidf, 0x4000e2e8)
                0x4000e2a4                PROVIDE (__floatunsisf, 0x4000e2a4)
                0x4000c8f0                PROVIDE (__muldf3, 0x4000c8f0)
                0x40000650                PROVIDE (__muldi3, 0x40000650)
                0x4000c3dc                PROVIDE (__mulsf3, 0x4000c3dc)
                0x4000c688                PROVIDE (__subdf3, 0x4000c688)
                0x4000c268                PROVIDE (__subsf3, 0x4000c268)
                0x4000cd5c                PROVIDE (__truncdfsf2, 0x4000cd5c)
                0x4000d310                PROVIDE (__udivdi3, 0x4000d310)
                0x4000e21c                PROVIDE (__udivsi3, 0x4000e21c)
                0x4000d770                PROVIDE (__umoddi3, 0x4000d770)
                0x4000e268                PROVIDE (__umodsi3, 0x4000e268)
                0x4000dcf0                PROVIDE (__umulsidi3, 0x4000dcf0)
                0x4000e388                PROVIDE (_rom_store, 0x4000e388)
                0x4000e328                PROVIDE (_rom_store_table, 0x4000e328)
                0x4000042c                PROVIDE (_start, 0x4000042c)
                0x4000dbe0                PROVIDE (_xtos_alloca_handler, 0x4000dbe0)
                0x40000598                PROVIDE (_xtos_c_wrapper_handler, 0x40000598)
                0x40000590                PROVIDE (_xtos_cause3_handler, 0x40000590)
                0x4000bda4                PROVIDE (_xtos_ints_off, 0x4000bda4)
                0x4000bd84                PROVIDE (_xtos_ints_on, 0x4000bd84)
                0x4000048c                PROVIDE (_xtos_l1int_handler, 0x4000048c)
                0x4000dbf8                PROVIDE (_xtos_p_none, 0x4000dbf8)
                0x4000056c                PROVIDE (_xtos_restore_intlevel, 0x4000056c)
                0x4000dc54                PROVIDE (_xtos_return_from_exc, 0x4000dc54)
                0x40000454                PROVIDE (_xtos_set_exception_handler, 0x40000454)
                0x4000bd70                PROVIDE (_xtos_set_interrupt_handler, 0x4000bd70)
                0x4000bd28                PROVIDE (_xtos_set_interrupt_handler_arg, 0x4000bd28)
                0x4000dbfc                PROVIDE (_xtos_set_intlevel, 0x4000dbfc)
                0x4000dc18                PROVIDE (_xtos_set_min_intlevel, 0x4000dc18)
                0x40000574                PROVIDE (_xtos_set_vpri, 0x40000574)
                0x4000dbe4                PROVIDE (_xtos_syscall_handler, 0x4000dbe4)
                0x4000dc44                PROVIDE (_xtos_unhandled_exception, 0x4000dc44)
                0x4000dc3c                PROVIDE (_xtos_unhandled_interrupt, 0x4000dc3c)
                0x400092d4                PROVIDE (aes_decrypt, 0x400092d4)
                0x400092e4                PROVIDE (aes_decrypt_deinit, 0x400092e4)
                0x40008ea4                PROVIDE (aes_decrypt_init, 0x40008ea4)
                0x40009410                PROVIDE (aes_unwrap, 0x40009410)
                0x40009648                PROVIDE (base64_decode, 0x40009648)
                0x400094fc                PROVIDE (base64_encode, 0x400094fc)
                0x4000de84                PROVIDE (bzero, 0x4000de84)
                0x40000814                PROVIDE (cmd_parse, 0x40000814)
                0x40000b24                PROVIDE (conv_str_decimal, 0x40000b24)
                0x40000cb8                PROVIDE (conv_str_hex, 0x40000cb8)
                0x40000a60                PROVIDE (convert_para_str, 0x40000a60)
                0x400026d0                PROVIDE (dtm_get_intr_mask, 0x400026d0)
                0x4000269c                PROVIDE (dtm_params_init, 0x4000269c)
                0x400026c8                PROVIDE (dtm_set_intr_mask, 0x400026c8)
                0x400026dc                PROVIDE (dtm_set_params, 0x400026dc)
                0x40001d14                PROVIDE (eprintf, 0x40001d14)
                0x40001cb8                PROVIDE (eprintf_init_buf, 0x40001cb8)
                0x40001d48                PROVIDE (eprintf_to_host, 0x40001d48)
                0x40002494                PROVIDE (est_get_printf_buf_remain_len, 0x40002494)
                0x4000249c                PROVIDE (est_reset_printf_buf_len, 0x4000249c)
                0x40002ae8                PROVIDE (ets_bzero, 0x40002ae8)
                0x40002b74                PROVIDE (ets_char2xdigit, 0x40002b74)
                0x40002ecc                PROVIDE (ets_delay_us, 0x40002ecc)
                0x400027b8                PROVIDE (ets_enter_sleep, 0x400027b8)
                0x40002578                PROVIDE (ets_external_printf, 0x40002578)
                0x40002f0c                PROVIDE (ets_get_cpu_frequency, 0x40002f0c)
                0x40002bcc                PROVIDE (ets_getc, 0x40002bcc)
                0x40002450                PROVIDE (ets_install_external_printf, 0x40002450)
                0x4000242c                PROVIDE (ets_install_putc1, 0x4000242c)
                0x4000248c                PROVIDE (ets_install_putc2, 0x4000248c)
                0x40002438                PROVIDE (ets_install_uart_printf, 0x40002438)
                0x40000f74                PROVIDE (ets_intr_lock, 0x40000f74)
                0x40000f80                PROVIDE (ets_intr_unlock, 0x40000f80)
                0x40000f88                PROVIDE (ets_isr_attach, 0x40000f88)
                0x40000f98                PROVIDE (ets_isr_mask, 0x40000f98)
                0x40000fa8                PROVIDE (ets_isr_unmask, 0x40000fa8)
                0x400018d4                PROVIDE (ets_memcmp, 0x400018d4)
                0x400018b4                PROVIDE (ets_memcpy, 0x400018b4)
                0x400018c4                PROVIDE (ets_memmove, 0x400018c4)
                0x400018a4                PROVIDE (ets_memset, 0x400018a4)
                0x40000e24                PROVIDE (ets_post, 0x40000e24)
                0x400024cc                PROVIDE (ets_printf, 0x400024cc)
                0x40002be8                PROVIDE (ets_putc, 0x40002be8)
                0x40002a40                PROVIDE (ets_rtc_int_register, 0x40002a40)
                0x40000e04                PROVIDE (ets_run, 0x40000e04)
                0x40000dc0                PROVIDE (ets_set_idle_cb, 0x40000dc0)
                0x40000fbc                PROVIDE (ets_set_user_start, 0x40000fbc)
                0x40002af8                PROVIDE (ets_str2macaddr, 0x40002af8)
                0x40002aa8                PROVIDE (ets_strcmp, 0x40002aa8)
                0x40002a88                PROVIDE (ets_strcpy, 0x40002a88)
                0x40002ac8                PROVIDE (ets_strlen, 0x40002ac8)
                0x40002ab8                PROVIDE (ets_strncmp, 0x40002ab8)
                0x40002a98                PROVIDE (ets_strncpy, 0x40002a98)
                0x40002ad8                PROVIDE (ets_strstr, 0x40002ad8)
                0x40000dd0                PROVIDE (ets_task, 0x40000dd0)
                0x40002cc4                PROVIDE (ets_timer_arm, 0x40002cc4)
                0x40002d40                PROVIDE (ets_timer_disarm, 0x40002d40)
                0x40002d80                PROVIDE (ets_timer_done, 0x40002d80)
                0x40002da8                PROVIDE (ets_timer_handler_isr, 0x40002da8)
                0x40002e68                PROVIDE (ets_timer_init, 0x40002e68)
                0x40002c48                PROVIDE (ets_timer_setfn, 0x40002c48)
                0x40002544                PROVIDE (ets_uart_printf, 0x40002544)
                0x40002f04                PROVIDE (ets_update_cpu_frequency, 0x40002f04)
                0x40001f00                PROVIDE (ets_vprintf, 0x40001f00)
                0x400030f0                PROVIDE (ets_wdt_disable, 0x400030f0)
                0x40002fa0                PROVIDE (ets_wdt_enable, 0x40002fa0)
                0x40002f34                PROVIDE (ets_wdt_get_mode, 0x40002f34)
                0x40003170                PROVIDE (ets_wdt_init, 0x40003170)
                0x40003158                PROVIDE (ets_wdt_restore, 0x40003158)
                0x40001da0                PROVIDE (ets_write_char, 0x40001da0)
                0x4000091c                PROVIDE (get_first_seg, 0x4000091c)
                0x40004c50                PROVIDE (gpio_init, 0x40004c50)
                0x40004cf0                PROVIDE (gpio_input_get, 0x40004cf0)
                0x40004dcc                PROVIDE (gpio_intr_ack, 0x40004dcc)
                0x40004e28                PROVIDE (gpio_intr_handler_register, 0x40004e28)
                0x40004d88                PROVIDE (gpio_intr_pending, 0x40004d88)
                0x40004efc                PROVIDE (gpio_intr_test, 0x40004efc)
                0x40004cd0                PROVIDE (gpio_output_set, 0x40004cd0)
                0x40004d90                PROVIDE (gpio_pin_intr_state_set, 0x40004d90)
                0x40004ed4                PROVIDE (gpio_pin_wakeup_disable, 0x40004ed4)
                0x40004e90                PROVIDE (gpio_pin_wakeup_enable, 0x40004e90)
                0x40004d5c                PROVIDE (gpio_register_get, 0x40004d5c)
                0x40004d04                PROVIDE (gpio_register_set, 0x40004d04)
                0x4000a2cc                PROVIDE (hmac_md5, 0x4000a2cc)
                0x4000a160                PROVIDE (hmac_md5_vector, 0x4000a160)
                0x4000ba28                PROVIDE (hmac_sha1, 0x4000ba28)
                0x4000b8b4                PROVIDE (hmac_sha1_vector, 0x4000b8b4)
                0x40004f40                PROVIDE (lldesc_build_chain, 0x40004f40)
                0x40005050                PROVIDE (lldesc_num2link, 0x40005050)
                0x4000507c                PROVIDE (lldesc_set_owner, 0x4000507c)
                0x40000fec                PROVIDE (main, 0x40000fec)
                0x400097ac                PROVIDE (md5_vector, 0x400097ac)
                0x40001c2c                PROVIDE (mem_calloc, 0x40001c2c)
                0x400019e0                PROVIDE (mem_free, 0x400019e0)
                0x40001998                PROVIDE (mem_init, 0x40001998)
                0x40001b40                PROVIDE (mem_malloc, 0x40001b40)
                0x40001c6c                PROVIDE (mem_realloc, 0x40001c6c)
                0x40001a14                PROVIDE (mem_trim, 0x40001a14)
                0x40001c58                PROVIDE (mem_zalloc, 0x40001c58)
                0x4000dea8                PROVIDE (memcmp, 0x4000dea8)
                0x4000df48                PROVIDE (memcpy, 0x4000df48)
                0x4000e04c                PROVIDE (memmove, 0x4000e04c)
                0x4000e190                PROVIDE (memset, 0x4000e190)
                0x400031c0                PROVIDE (multofup, 0x400031c0)
                0x4000b840                PROVIDE (pbkdf2_sha1, 0x4000b840)
                0x40006b08                PROVIDE (phy_get_romfuncs, 0x40006b08)
                0x40000600                PROVIDE (rand, 0x40000600)
                0x4000dd68                PROVIDE (rc4_skip, 0x4000dd68)
                0x40003d08                PROVIDE (recv_packet, 0x40003d08)
                0x40000a04                PROVIDE (remove_head_space, 0x40000a04)
                0x40008dd0                PROVIDE (rijndaelKeySetupDec, 0x40008dd0)
                0x40009300                PROVIDE (rijndaelKeySetupEnc, 0x40009300)
                0x400060c0                PROVIDE (rom_abs_temp, 0x400060c0)
                0x40006b10                PROVIDE (rom_ana_inf_gating_en, 0x40006b10)
                0x40007a28                PROVIDE (rom_cal_tos_v50, 0x40007a28)
                0x40006f84                PROVIDE (rom_chip_50_set_channel, 0x40006f84)
                0x400060d0                PROVIDE (rom_chip_v5_disable_cca, 0x400060d0)
                0x400060ec                PROVIDE (rom_chip_v5_enable_cca, 0x400060ec)
                0x4000711c                PROVIDE (rom_chip_v5_rx_init, 0x4000711c)
                0x4000610c                PROVIDE (rom_chip_v5_sense_backoff, 0x4000610c)
                0x4000718c                PROVIDE (rom_chip_v5_tx_init, 0x4000718c)
                0x4000615c                PROVIDE (rom_dc_iq_est, 0x4000615c)
                0x400061b8                PROVIDE (rom_en_pwdet, 0x400061b8)
                0x40006238                PROVIDE (rom_get_bb_atten, 0x40006238)
                0x40006260                PROVIDE (rom_get_corr_power, 0x40006260)
                0x400062dc                PROVIDE (rom_get_fm_sar_dout, 0x400062dc)
                0x40006394                PROVIDE (rom_get_noisefloor, 0x40006394)
                0x400063b0                PROVIDE (rom_get_power_db, 0x400063b0)
                0x40007268                PROVIDE (rom_i2c_readReg, 0x40007268)
                0x4000729c                PROVIDE (rom_i2c_readReg_Mask, 0x4000729c)
                0x400072d8                PROVIDE (rom_i2c_writeReg, 0x400072d8)
                0x4000730c                PROVIDE (rom_i2c_writeReg_Mask, 0x4000730c)
                0x40006400                PROVIDE (rom_iq_est_disable, 0x40006400)
                0x40006430                PROVIDE (rom_iq_est_enable, 0x40006430)
                0x40006484                PROVIDE (rom_linear_to_db, 0x40006484)
                0x400065a4                PROVIDE (rom_mhz2ieee, 0x400065a4)
                0x40007bf0                PROVIDE (rom_pbus_dco___SA2, 0x40007bf0)
                0x4000737c                PROVIDE (rom_pbus_debugmode, 0x4000737c)
                0x40007410                PROVIDE (rom_pbus_enter_debugmode, 0x40007410)
                0x40007448                PROVIDE (rom_pbus_exit_debugmode, 0x40007448)
                0x4000747c                PROVIDE (rom_pbus_force_test, 0x4000747c)
                0x400074d8                PROVIDE (rom_pbus_rd, 0x400074d8)
                0x4000754c                PROVIDE (rom_pbus_set_rxgain, 0x4000754c)
                0x40007610                PROVIDE (rom_pbus_set_txgain, 0x40007610)
                0x40007648                PROVIDE (rom_pbus_workmode, 0x40007648)
                0x40007688                PROVIDE (rom_pbus_xpd_rx_off, 0x40007688)
                0x400076cc                PROVIDE (rom_pbus_xpd_rx_on, 0x400076cc)
                0x400076fc                PROVIDE (rom_pbus_xpd_tx_off, 0x400076fc)
                0x40007740                PROVIDE (rom_pbus_xpd_tx_on, 0x40007740)
                0x400077a0                PROVIDE (rom_pbus_xpd_tx_on__low_gain, 0x400077a0)
                0x40007804                PROVIDE (rom_phy_reset_req, 0x40007804)
                0x4000781c                PROVIDE (rom_restart_cal, 0x4000781c)
                0x40007eb4                PROVIDE (rom_rfcal_pwrctrl, 0x40007eb4)
                0x4000804c                PROVIDE (rom_rfcal_rxiq, 0x4000804c)
                0x40008264                PROVIDE (rom_rfcal_rxiq_set_reg, 0x40008264)
                0x40008388                PROVIDE (rom_rfcal_txcap, 0x40008388)
                0x40008610                PROVIDE (rom_rfcal_txiq, 0x40008610)
                0x400088b8                PROVIDE (rom_rfcal_txiq_cover, 0x400088b8)
                0x40008a70                PROVIDE (rom_rfcal_txiq_set_reg, 0x40008a70)
                0x40007868                PROVIDE (rom_rfpll_reset, 0x40007868)
                0x40007968                PROVIDE (rom_rfpll_set_freq, 0x40007968)
                0x40008b6c                PROVIDE (rom_rxiq_cover_mg_mp, 0x40008b6c)
                0x40006628                PROVIDE (rom_rxiq_get_mis, 0x40006628)
                0x40006738                PROVIDE (rom_sar_init, 0x40006738)
                0x4000678c                PROVIDE (rom_set_ana_inf_tx_scale, 0x4000678c)
                0x40006c50                PROVIDE (rom_set_channel_freq, 0x40006c50)
                0x400067c8                PROVIDE (rom_set_loopback_gain, 0x400067c8)
                0x40006830                PROVIDE (rom_set_noise_floor, 0x40006830)
                0x40006550                PROVIDE (rom_set_rxclk_en, 0x40006550)
                0x40008c6c                PROVIDE (rom_set_txbb_atten, 0x40008c6c)
                0x4000650c                PROVIDE (rom_set_txclk_en, 0x4000650c)
                0x40008d34                PROVIDE (rom_set_txiq_cal, 0x40008d34)
                0x40006874                PROVIDE (rom_start_noisefloor, 0x40006874)
                0x400068b4                PROVIDE (rom_start_tx_tone, 0x400068b4)
                0x4000698c                PROVIDE (rom_stop_tx_tone, 0x4000698c)
                0x40006a98                PROVIDE (rom_tx_mac_disable, 0x40006a98)
                0x40006ad4                PROVIDE (rom_tx_mac_enable, 0x40006ad4)
                0x40006a1c                PROVIDE (rom_txtone_linear_pwr, 0x40006a1c)
                0x400078dc                PROVIDE (rom_write_rfpll_sdm, 0x400078dc)
                0x400031b4                PROVIDE (roundup2, 0x400031b4)
                0x40002870                PROVIDE (rtc_enter_sleep, 0x40002870)
                0x400025e0                PROVIDE (rtc_get_reset_reason, 0x400025e0)
                0x400029ec                PROVIDE (rtc_intr_handler, 0x400029ec)
                0x40002668                PROVIDE (rtc_set_sleep_mode, 0x40002668)
                0x400027a4                PROVIDE (save_rxbcn_mactime, 0x400027a4)
                0x400027ac                PROVIDE (save_tsf_us, 0x400027ac)
                0x40003c80                PROVIDE (send_packet, 0x40003c80)
                0x4000ba48                PROVIDE (sha1_prf, 0x4000ba48)
                0x4000a2ec                PROVIDE (sha1_vector, 0x4000a2ec)
                0x40005180                PROVIDE (sip_alloc_to_host_evt, 0x40005180)
                0x400058a8                PROVIDE (sip_get_ptr, 0x400058a8)
                0x40005668                PROVIDE (sip_get_state, 0x40005668)
                0x4000567c                PROVIDE (sip_init_attach, 0x4000567c)
                0x4000544c                PROVIDE (sip_install_rx_ctrl_cb, 0x4000544c)
                0x4000545c                PROVIDE (sip_install_rx_data_cb, 0x4000545c)
                0x400050fc                PROVIDE (sip_post, 0x400050fc)
                0x400056c4                PROVIDE (sip_post_init, 0x400056c4)
                0x4000534c                PROVIDE (sip_reclaim_from_host_cmd, 0x4000534c)
                0x400052c0                PROVIDE (sip_reclaim_tx_data_pkt, 0x400052c0)
                0x40005808                PROVIDE (sip_send, 0x40005808)
                0x40005864                PROVIDE (sip_to_host_chain_append, 0x40005864)
                0x40005234                PROVIDE (sip_to_host_evt_send_done, 0x40005234)
                0x400060ac                PROVIDE (slc_add_credits, 0x400060ac)
                0x40005d90                PROVIDE (slc_enable, 0x40005d90)
                0x40005f24                PROVIDE (slc_from_host_chain_fetch, 0x40005f24)
                0x40005e94                PROVIDE (slc_from_host_chain_recycle, 0x40005e94)
                0x40005c50                PROVIDE (slc_init_attach, 0x40005c50)
                0x4000608c                PROVIDE (slc_init_credit, 0x4000608c)
                0x40006014                PROVIDE (slc_pause_from_host, 0x40006014)
                0x40005c1c                PROVIDE (slc_reattach, 0x40005c1c)
                0x4000603c                PROVIDE (slc_resume_from_host, 0x4000603c)
                0x40005dc0                PROVIDE (slc_select_tohost_gpio, 0x40005dc0)
                0x40005db8                PROVIDE (slc_select_tohost_gpio_mode, 0x40005db8)
                0x40005de4                PROVIDE (slc_send_to_host_chain, 0x40005de4)
                0x40006068                PROVIDE (slc_set_host_io_max_window, 0x40006068)
                0x40005f10                PROVIDE (slc_to_host_chain_recycle, 0x40005f10)
                0x4000264c                PROVIDE (software_reset, 0x4000264c)
                0x40004644                PROVIDE (spi_flash_attach, 0x40004644)
                0x400005f0                PROVIDE (srand, 0x400005f0)
                0x4000bdc8                PROVIDE (strcmp, 0x4000bdc8)
                0x4000bec8                PROVIDE (strcpy, 0x4000bec8)
                0x4000bf4c                PROVIDE (strlen, 0x4000bf4c)
                0x4000bfa8                PROVIDE (strncmp, 0x4000bfa8)
                0x4000c0a0                PROVIDE (strncpy, 0x4000c0a0)
                0x4000e1e0                PROVIDE (strstr, 0x4000e1e0)
                0x40002c64                PROVIDE (timer_insert, 0x40002c64)
                0x4000383c                PROVIDE (uartAttach, 0x4000383c)
                0x40003924                PROVIDE (uart_baudrate_detect, 0x40003924)
                0x400038a4                PROVIDE (uart_buff_switch, 0x400038a4)
                0x400039d8                PROVIDE (uart_div_modify, 0x400039d8)
                0x40003bbc                PROVIDE (uart_rx_intr_handler, 0x40003bbc)
                0x40003b8c                PROVIDE (uart_rx_one_char, 0x40003b8c)
                0x40003b64                PROVIDE (uart_rx_one_char_block, 0x40003b64)
                0x40003ec8                PROVIDE (uart_rx_readbuff, 0x40003ec8)
                0x40003b30                PROVIDE (uart_tx_one_char, 0x40003b30)
                0x4000bc40                PROVIDE (wepkey_128, 0x4000bc40)
                0x4000bb3c                PROVIDE (wepkey_64, 0x4000bb3c)
                0x40000688                PROVIDE (xthal_bcopy, 0x40000688)
                0x4000074c                PROVIDE (xthal_copy123, 0x4000074c)
                0x4000dd4c                PROVIDE (xthal_get_ccompare, 0x4000dd4c)
                0x4000dd38                PROVIDE (xthal_get_ccount, 0x4000dd38)
                0x4000dd58                PROVIDE (xthal_get_interrupt, 0x4000dd58)
                0x4000dd58                PROVIDE (xthal_get_intread, 0x4000dd58)
                0x400006c4                PROVIDE (xthal_memcpy, 0x400006c4)
                0x4000dd40                PROVIDE (xthal_set_ccompare, 0x4000dd40)
                0x4000dd60                PROVIDE (xthal_set_intclear, 0x4000dd60)
                0x4000e320                PROVIDE (xthal_spill_registers_into_stack_nw, 0x4000e320)
                0x4000e324                PROVIDE (xthal_window_spill, 0x4000e324)
                0x4000e320                PROVIDE (xthal_window_spill_nw, 0x4000e320)
                0x3fffccf0                PROVIDE (Te0, 0x3fffccf0)
                0x3fffde10                PROVIDE (UartDev, 0x3fffde10)
                0x3fffc700                PROVIDE (rtc_calib, 0x3fffc700)
                0x3fffc704                PROVIDE (cpu_clk_mhz, 0x3fffc704)
                0x3fffc708                PROVIDE (wdt_info, 0x3fffc708)
                0x3fffc714                PROVIDE (flashchip, 0x3fffc714)
                0x40001878                PROVIDE (esp_print_exception_regs, 0x40001878)
                0x400017e0                PROVIDE (esp_dump_regs, 0x400017e0)
                0x40001878                PROVIDE (esp_FatalException, 0x40001878)
                0x400017e0                PROVIDE (esp_exception9, 0x400017e0)
                0x40004568                PROVIDE (SPIFlashCnfig, 0x40004568)
                0x40001dcc                PROVIDE (_putc1, 0x40001dcc)
                0x400024a8                PROVIDE (_putc2_def, 0x400024a8)
                0x3fffdd58                PROVIDE (printf_buf_len, 0x3fffdd58)
                0x3fffdd5c                PROVIDE (printf_pbuf, 0x3fffdd5c)
                0x3fffdcd0                PROVIDE (user_start_proc, 0x3fffdcd0)
                0x3fffdd64                PROVIDE (dtm_params, 0x3fffdd64)
                0x3fffddb8                PROVIDE (spi_flash_info, 0x3fffddb8)
                0x3ff00000                PROVIDE (dport_, 0x3ff00000)
                0x3ff20000                PROVIDE (io2_regs_, 0x3ff20000)
                0x60000000                PROVIDE (uart0_, 0x60000000)
                0x60000100                PROVIDE (spi1_, 0x60000100)
                0x60000200                PROVIDE (spi0_, 0x60000200)
                0x60000300                PROVIDE (gpio_, 0x60000300)
                0x60000600                PROVIDE (timer_, 0x60000600)
                0x60000700                PROVIDE (rtc_, 0x60000700)
                0x60000800                PROVIDE (iomux_, 0x60000800)
                0x60000900                PROVIDE (wdt_, 0x60000900)
                0x60000d00                PROVIDE (sar_, 0x60000d00)
                0x60000f00                PROVIDE (uart1_, 0x60000f00)
                0x60001000                PROVIDE (rtc_ram_, 0x60001000)
                0x60001100                PROVIDE (rtc_mem_, 0x60001100)
                0x60009800                PROVIDE (io4_regs_, 0x60009800)
                0x400040c0                PROVIDE (SPI_sector_erase, 0x400040c0)
                0x40004174                PROVIDE (SPI_page_program, 0x40004174)
                0x400042ac                PROVIDE (SPI_read_data, 0x400042ac)
                0x400043c8                PROVIDE (SPI_read_status, 0x400043c8)
                0x40004400                PROVIDE (SPI_write_status, 0x40004400)
                0x4000443c                PROVIDE (SPI_write_enable, 0x4000443c)
                0x4000448c                PROVIDE (Wait_SPI_Idle, 0x4000448c)
                0x400044c0                PROVIDE (Enable_QMode, 0x400044c0)
                0x40004508                PROVIDE (Disable_QMode, 0x40004508)
OUTPUT(.output/eagle/image/eagle.app.v6.out elf32-xtensa-le)

.xtensa.info    0x00000000       0x38
 .xtensa.info   0x00000000       0x38 ../lib\libmain.a(xtensa_vectors.o)
 .xtensa.info   0x00000000        0x0 ../lib\libmain.a(app_main.o)
 .xtensa.info   0x00000000        0x0 ../lib\libmain.a(ets_timer.o)
 .xtensa.info   0x00000000        0x0 ../lib\libmain.a(misc.o)
 .xtensa.info   0x00000000        0x0 ../lib\libmain.a(printf-stdarg.o)
 .xtensa.info   0x00000000        0x0 ../lib\libmain.a(spi_flash.o)
 .xtensa.info   0x00000000        0x0 ../lib\libmain.a(uart.o)
 .xtensa.info   0x00000000        0x0 ../lib\libmain.a(user_interface.o)
 .xtensa.info   0x00000000        0x0 ../lib\libmain.a(os_cpu_a.o)
 .xtensa.info   0x00000000        0x0 ../lib\libmain.a(xtensa_context.o)
 .xtensa.info   0x00000000        0x0 ../lib\libmain.a(timers.o)
 .xtensa.info   0x00000000        0x0 ../lib\libfreertos.a(heap_4.o)
 .xtensa.info   0x00000000        0x0 ../lib\libfreertos.a(port.o)
 .xtensa.info   0x00000000        0x0 ../lib\libfreertos.a(queue.o)
 .xtensa.info   0x00000000        0x0 ../lib\libfreertos.a(tasks.o)
 .xtensa.info   0x00000000        0x0 ../lib\libfreertos.a(timers.o)
 .xtensa.info   0x00000000        0x0 ../lib\libfreertos.a(list.o)
 .xtensa.info   0x00000000        0x0 ../lib\liblwip.a(dhcp.o)
 .xtensa.info   0x00000000        0x0 ../lib\liblwip.a(dns.o)
 .xtensa.info   0x00000000        0x0 ../lib\liblwip.a(etharp.o)
 .xtensa.info   0x00000000        0x0 ../lib\liblwip.a(ip4_addr.o)
 .xtensa.info   0x00000000        0x0 ../lib\liblwip.a(ip4.o)
 .xtensa.info   0x00000000        0x0 ../lib\liblwip.a(ip_frag.o)
 .xtensa.info   0x00000000        0x0 ../lib\liblwip.a(memp.o)
 .xtensa.info   0x00000000        0x0 ../lib\liblwip.a(netif.o)
 .xtensa.info   0x00000000        0x0 ../lib\liblwip.a(pbuf.o)
 .xtensa.info   0x00000000        0x0 ../lib\liblwip.a(raw.o)
 .xtensa.info   0x00000000        0x0 ../lib\liblwip.a(stats.o)
 .xtensa.info   0x00000000        0x0 ../lib\liblwip.a(sys_arch.o)
 .xtensa.info   0x00000000        0x0 ../lib\liblwip.a(tcp_in.o)
 .xtensa.info   0x00000000        0x0 ../lib\liblwip.a(tcpip.o)
 .xtensa.info   0x00000000        0x0 ../lib\liblwip.a(tcp.o)
 .xtensa.info   0x00000000        0x0 ../lib\liblwip.a(tcp_out.o)
 .xtensa.info   0x00000000        0x0 ../lib\liblwip.a(timers.o)
 .xtensa.info   0x00000000        0x0 ../lib\liblwip.a(udp.o)
 .xtensa.info   0x00000000        0x0 ../lib\liblwip.a(icmp.o)
 .xtensa.info   0x00000000        0x0 ../lib\liblwip.a(inet_chksum.o)
 .xtensa.info   0x00000000        0x0 ../lib\liblwip.a(init.o)
 .xtensa.info   0x00000000        0x0 ../lib\liblwip.a(sockets.o)
 .xtensa.info   0x00000000        0x0 ../lib\liblwip.a(api_lib.o)
 .xtensa.info   0x00000000        0x0 ../lib\liblwip.a(api_msg.o)
 .xtensa.info   0x00000000        0x0 ../lib\liblwip.a(netbuf.o)
 .xtensa.info   0x00000000        0x0 user/.output/eagle/lib/libuser.a(user_main.o)
 .xtensa.info   0x00000000        0x0 user/.output/eagle/lib/libuser.a(spiram_fifo.o)
 .xtensa.info   0x00000000        0x0 user/.output/eagle/lib/libuser.a(iram_buf.o)
 .xtensa.info   0x00000000        0x0 mad/.output/eagle/lib/libmad.a(stream.o)
 .xtensa.info   0x00000000        0x0 mad/.output/eagle/lib/libmad.a(synth.o)
 .xtensa.info   0x00000000        0x0 mad/.output/eagle/lib/libmad.a(bit.o)
 .xtensa.info   0x00000000        0x0 mad/.output/eagle/lib/libmad.a(frame.o)
 .xtensa.info   0x00000000        0x0 mad/.output/eagle/lib/libmad.a(timer.o)
 .xtensa.info   0x00000000        0x0 mad/.output/eagle/lib/libmad.a(align.o)
 .xtensa.info   0x00000000        0x0 mad/.output/eagle/lib/libmad.a(layer3.o)
 .xtensa.info   0x00000000        0x0 mad/.output/eagle/lib/libmad.a(huffman.o)
 .xtensa.info   0x00000000        0x0 driver/.output/eagle/lib/libdriver.a(uart.o)
 .xtensa.info   0x00000000        0x0 driver/.output/eagle/lib/libdriver.a(i2s_freertos.o)
 .xtensa.info   0x00000000        0x0 ../lib\libmc.a(lib_a-bzero.o)
 .xtensa.info   0x00000000        0x0 ../lib\libmc.a(lib_a-memcmp.o)
 .xtensa.info   0x00000000        0x0 ../lib\libmc.a(lib_a-memmove.o)
 .xtensa.info   0x00000000        0x0 ../lib\libmc.a(lib_a-strcmp.o)
 .xtensa.info   0x00000000        0x0 ../lib\libmc.a(lib_a-strcpy.o)
 .xtensa.info   0x00000000        0x0 ../lib\libmc.a(lib_a-strncmp.o)
 .xtensa.info   0x00000000        0x0 c:/espressif/xtensa-lx106-elf/bin/../lib/gcc/xtensa-lx106-elf/4.8.2/../../../../xtensa-lx106-elf/lib\libhal.a(clock.o)
 .xtensa.info   0x00000000        0x0 c:/espressif/xtensa-lx106-elf/bin/../lib/gcc/xtensa-lx106-elf/4.8.2/../../../../xtensa-lx106-elf/lib\libhal.a(int_asm--set_intset.o)
 .xtensa.info   0x00000000        0x0 ../lib\libmphy.a(phy_chip_v5_ana_romfunc.o)
 .xtensa.info   0x00000000        0x0 ../lib\libmphy.a(phy_chip_v5_romfunc.o)
 .xtensa.info   0x00000000        0x0 ../lib\libmphy.a(phy.o)
 .xtensa.info   0x00000000        0x0 ../lib\libmphy.a(phy_chip_v6.o)
 .xtensa.info   0x00000000        0x0 ../lib\libmphy.a(phy_chip_v6_ana.o)
 .xtensa.info   0x00000000        0x0 ../lib\libmphy.a(phy_chip_v6_cal.o)
 .xtensa.info   0x00000000        0x0 ../lib\libmphy.a(phy_sleep.o)
 .xtensa.info   0x00000000        0x0 ../lib\libmphy.a(phy_chip_v5_cal_romfunc.o)
 .xtensa.info   0x00000000        0x0 ../lib\libpp.a(lmac.o)
 .xtensa.info   0x00000000        0x0 ../lib\libpp.a(pm.o)
 .xtensa.info   0x00000000        0x0 ../lib\libpp.a(pp.o)
 .xtensa.info   0x00000000        0x0 ../lib\libpp.a(rate_control.o)
 .xtensa.info   0x00000000        0x0 ../lib\libpp.a(trc.o)
 .xtensa.info   0x00000000        0x0 ../lib\libpp.a(wdev.o)
 .xtensa.info   0x00000000        0x0 ../lib\libpp.a(esf_buf.o)
 .xtensa.info   0x00000000        0x0 ../lib\libpp.a(if_hwctrl.o)
 .xtensa.info   0x00000000        0x0 ../lib\libnet80211.a(ieee80211.o)
 .xtensa.info   0x00000000        0x0 ../lib\libnet80211.a(ieee80211_crypto.o)
 .xtensa.info   0x00000000        0x0 ../lib\libnet80211.a(ieee80211_ets.o)
 .xtensa.info   0x00000000        0x0 ../lib\libnet80211.a(ieee80211_hostap.o)
 .xtensa.info   0x00000000        0x0 ../lib\libnet80211.a(ieee80211_ht.o)
 .xtensa.info   0x00000000        0x0 ../lib\libnet80211.a(ieee80211_input.o)
 .xtensa.info   0x00000000        0x0 ../lib\libnet80211.a(ieee80211_output.o)
 .xtensa.info   0x00000000        0x0 ../lib\libnet80211.a(ieee80211_phy.o)
 .xtensa.info   0x00000000        0x0 ../lib\libnet80211.a(ieee80211_power.o)
 .xtensa.info   0x00000000        0x0 ../lib\libnet80211.a(ieee80211_proto.o)
 .xtensa.info   0x00000000        0x0 ../lib\libnet80211.a(ieee80211_scan.o)
 .xtensa.info   0x00000000        0x0 ../lib\libnet80211.a(ieee80211_sta.o)
 .xtensa.info   0x00000000        0x0 ../lib\libnet80211.a(wl_chm.o)
 .xtensa.info   0x00000000        0x0 ../lib\libnet80211.a(wl_cnx.o)
 .xtensa.info   0x00000000        0x0 ../lib\libnet80211.a(ieee80211_action.o)
 .xtensa.info   0x00000000        0x0 ../lib\libwpa.a(ap_config.o)
 .xtensa.info   0x00000000        0x0 ../lib\libwpa.a(common.o)
 .xtensa.info   0x00000000        0x0 ../lib\libwpa.a(os_xtensa.o)
 .xtensa.info   0x00000000        0x0 ../lib\libwpa.a(sha1-pbkdf2.o)
 .xtensa.info   0x00000000        0x0 ../lib\libwpa.a(wpa_auth.o)
 .xtensa.info   0x00000000        0x0 ../lib\libwpa.a(wpa_auth_ie.o)
 .xtensa.info   0x00000000        0x0 ../lib\libwpa.a(wpa.o)
 .xtensa.info   0x00000000        0x0 ../lib\libwpa.a(wpa_common.o)
 .xtensa.info   0x00000000        0x0 ../lib\libwpa.a(wpa_debug.o)
 .xtensa.info   0x00000000        0x0 ../lib\libwpa.a(wpa_ie.o)
 .xtensa.info   0x00000000        0x0 ../lib\libwpa.a(wpa_main.o)
 .xtensa.info   0x00000000        0x0 ../lib\libwpa.a(wpas_glue.o)
 .xtensa.info   0x00000000        0x0 ../lib\libwpa.a(aes-unwrap.o)
 .xtensa.info   0x00000000        0x0 ../lib\libwpa.a(aes-wrap.o)
 .xtensa.info   0x00000000        0x0 ../lib\libwpa.a(md5.o)
 .xtensa.info   0x00000000        0x0 ../lib\libwpa.a(md5-internal.o)
 .xtensa.info   0x00000000        0x0 ../lib\libwpa.a(rc4.o)
 .xtensa.info   0x00000000        0x0 ../lib\libwpa.a(sha1.o)
 .xtensa.info   0x00000000        0x0 ../lib\libwpa.a(sha1-internal.o)
 .xtensa.info   0x00000000        0x0 ../lib\libwpa.a(aes-internal-dec.o)
 .xtensa.info   0x00000000        0x0 ../lib\libwpa.a(aes-internal-enc.o)
 .xtensa.info   0x00000000        0x0 ../lib\libwpa.a(aes-internal.o)
 .xtensa.info   0x00000000        0x0 ../lib\libmain.a(libc.o)
 .xtensa.info   0x00000000        0x0 ../lib\liblwip.a(ethernetif.o)
 .xtensa.info   0x00000000        0x0 ../lib\liblwip.a(netdb.o)
 .xtensa.info   0x00000000        0x0 main/.output/eagle/lib/libaddmmain.a(phy_chip_v6_unused.o)
 .xtensa.info   0x00000000        0x0 ../lib\libmc.a(lib_a-strncpy.o)
 .xtensa.info   0x00000000        0x0 ../lib\libmgcc.a(_ashrdi3.o)
 .xtensa.info   0x00000000        0x0 ../lib\libmgcc.a(_divsf3.o)
 .xtensa.info   0x00000000        0x0 ../lib\libmgcc.a(_fixsfsi.o)
 .xtensa.info   0x00000000        0x0 ../lib\libmgcc.a(_modsi3.o)
 .xtensa.info   0x00000000        0x0 ../lib\libmgcc.a(_popcountsi2.o)
 .xtensa.info   0x00000000        0x0 ../lib\libmgcc.a(_popcount_tab.o)
 .xtensa.info   0x00000000        0x0 ../lib\libnet80211.a(ieee80211_crypto_ccmp.o)
 .xtensa.info   0x00000000        0x0 ../lib\libnet80211.a(ieee80211_crypto_tkip.o)
 .xtensa.info   0x00000000        0x0 ../lib\libnet80211.a(ieee80211_crypto_wep.o)

.xt.lit         0x00000000     0x1308
 .xt.lit        0x00000000       0x10 ../lib\libmain.a(xtensa_vectors.o)
                                 0x40 (size before relaxing)
 .xt.lit        0x00000010       0x80 ../lib\libmain.a(app_main.o)
                                 0x88 (size before relaxing)
 .xt.lit        0x00000090       0x38 ../lib\libmain.a(ets_timer.o)
                                 0x60 (size before relaxing)
 .xt.lit        0x000000c8       0x28 ../lib\libmain.a(misc.o)
                                 0x38 (size before relaxing)
 .xt.lit        0x000000f0       0x28 ../lib\libmain.a(printf-stdarg.o)
                                 0x38 (size before relaxing)
 .xt.lit        0x00000118       0x40 ../lib\libmain.a(spi_flash.o)
                                 0x50 (size before relaxing)
 .xt.lit        0x00000158        0x8 ../lib\libmain.a(uart.o)
 .xt.lit        0x00000160      0x158 ../lib\libmain.a(user_interface.o)
                                0x298 (size before relaxing)
 .xt.lit        0x000002b8        0x8 ../lib\libmain.a(os_cpu_a.o)
                                 0x10 (size before relaxing)
 .xt.lit        0x000002c0       0x18 ../lib\libmain.a(timers.o)
 .xt.lit        0x000002d8       0x10 ../lib\libfreertos.a(heap_4.o)
                                 0x38 (size before relaxing)
 .xt.lit        0x000002e8       0x28 ../lib\libfreertos.a(port.o)
                                 0x58 (size before relaxing)
 .xt.lit        0x00000310       0x20 ../lib\libfreertos.a(queue.o)
                                 0x78 (size before relaxing)
 .xt.lit        0x00000330       0x50 ../lib\libfreertos.a(tasks.o)
                                0x148 (size before relaxing)
 .xt.lit        0x00000380       0x18 ../lib\libfreertos.a(timers.o)
                                 0x68 (size before relaxing)
 .xt.lit        0x00000398       0x50 ../lib\liblwip.a(dhcp.o)
                                 0xc0 (size before relaxing)
 .xt.lit        0x000003e8       0x20 ../lib\liblwip.a(dns.o)
                                 0x50 (size before relaxing)
 .xt.lit        0x00000408       0x20 ../lib\liblwip.a(etharp.o)
                                 0x78 (size before relaxing)
 .xt.lit        0x00000428       0x18 ../lib\liblwip.a(ip4_addr.o)
                                 0x20 (size before relaxing)
 .xt.lit        0x00000440       0x10 ../lib\liblwip.a(ip4.o)
                                 0x20 (size before relaxing)
 .xt.lit        0x00000450        0x8 ../lib\liblwip.a(ip_frag.o)
 .xt.lit        0x00000458       0x10 ../lib\liblwip.a(netif.o)
                                 0x40 (size before relaxing)
 .xt.lit        0x00000468       0x18 ../lib\liblwip.a(pbuf.o)
                                 0x58 (size before relaxing)
 .xt.lit        0x00000480        0x8 ../lib\liblwip.a(raw.o)
                                 0x20 (size before relaxing)
 .xt.lit        0x00000488        0x8 ../lib\liblwip.a(sys_arch.o)
                                 0x98 (size before relaxing)
 .xt.lit        0x00000490       0x28 ../lib\liblwip.a(tcp_in.o)
                                 0x38 (size before relaxing)
 .xt.lit        0x000004b8       0x20 ../lib\liblwip.a(tcpip.o)
                                 0x68 (size before relaxing)
 .xt.lit        0x000004d8       0x50 ../lib\liblwip.a(tcp.o)
                                 0xc0 (size before relaxing)
 .xt.lit        0x00000528       0x28 ../lib\liblwip.a(tcp_out.o)
                                 0x70 (size before relaxing)
 .xt.lit        0x00000550       0x28 ../lib\liblwip.a(timers.o)
                                 0x50 (size before relaxing)
 .xt.lit        0x00000578        0x8 ../lib\liblwip.a(udp.o)
                                 0x40 (size before relaxing)
 .xt.lit        0x00000580        0x8 ../lib\liblwip.a(icmp.o)
                                 0x10 (size before relaxing)
 .xt.lit        0x00000588        0x0 ../lib\liblwip.a(init.o)
                                  0x8 (size before relaxing)
 .xt.lit        0x00000588       0x40 ../lib\liblwip.a(sockets.o)
                                 0xc0 (size before relaxing)
 .xt.lit        0x000005c8       0x60 ../lib\liblwip.a(api_lib.o)
                                 0x78 (size before relaxing)
 .xt.lit        0x00000628       0x30 ../lib\liblwip.a(api_msg.o)
                                 0xe0 (size before relaxing)
 .xt.lit        0x00000658        0x8 ../lib\liblwip.a(netbuf.o)
                                 0x30 (size before relaxing)
 .xt.lit        0x00000660       0x40 user/.output/eagle/lib/libuser.a(user_main.o)
                                 0x48 (size before relaxing)
 .xt.lit        0x000006a0       0x10 user/.output/eagle/lib/libuser.a(spiram_fifo.o)
                                 0x40 (size before relaxing)
 .xt.lit        0x000006b0       0x10 user/.output/eagle/lib/libuser.a(iram_buf.o)
                                 0x20 (size before relaxing)
 .xt.lit        0x000006c0       0x18 mad/.output/eagle/lib/libmad.a(stream.o)
                                 0x20 (size before relaxing)
 .xt.lit        0x000006d8       0x20 mad/.output/eagle/lib/libmad.a(synth.o)
                                 0x28 (size before relaxing)
 .xt.lit        0x000006f8        0x8 mad/.output/eagle/lib/libmad.a(bit.o)
 .xt.lit        0x00000700       0x28 mad/.output/eagle/lib/libmad.a(frame.o)
 .xt.lit        0x00000728       0x28 mad/.output/eagle/lib/libmad.a(timer.o)
                                 0x40 (size before relaxing)
 .xt.lit        0x00000750       0x38 mad/.output/eagle/lib/libmad.a(layer3.o)
 .xt.lit        0x00000788       0x68 driver/.output/eagle/lib/libdriver.a(uart.o)
                                 0x88 (size before relaxing)
 .xt.lit        0x000007f0       0x20 driver/.output/eagle/lib/libdriver.a(i2s_freertos.o)
                                 0x28 (size before relaxing)
 .xt.lit        0x00000810        0x8 ../lib\libmc.a(lib_a-strcmp.o)
 .xt.lit        0x00000818        0x0 ../lib\libmc.a(lib_a-strcpy.o)
                                  0x8 (size before relaxing)
 .xt.lit        0x00000818       0x50 ../lib\libmphy.a(phy_chip_v5_ana_romfunc.o)
                                 0xd8 (size before relaxing)
 .xt.lit        0x00000868       0x70 ../lib\libmphy.a(phy_chip_v5_romfunc.o)
                                 0xd8 (size before relaxing)
 .xt.lit        0x000008d8       0x10 ../lib\libmphy.a(phy.o)
                                 0x68 (size before relaxing)
 .xt.lit        0x000008e8      0x118 ../lib\libmphy.a(phy_chip_v6.o)
                                0x1f0 (size before relaxing)
 .xt.lit        0x00000a00       0x60 ../lib\libmphy.a(phy_chip_v6_ana.o)
                                 0xc0 (size before relaxing)
 .xt.lit        0x00000a60       0x70 ../lib\libmphy.a(phy_chip_v6_cal.o)
                                 0xe0 (size before relaxing)
 .xt.lit        0x00000ad0       0x68 ../lib\libmphy.a(phy_sleep.o)
                                 0xd8 (size before relaxing)
 .xt.lit        0x00000b38       0x30 ../lib\libmphy.a(phy_chip_v5_cal_romfunc.o)
                                 0x58 (size before relaxing)
 .xt.lit        0x00000b68       0x58 ../lib\libpp.a(lmac.o)
                                0x108 (size before relaxing)
 .xt.lit        0x00000bc0       0xe0 ../lib\libpp.a(pm.o)
                                0x198 (size before relaxing)
 .xt.lit        0x00000ca0       0xc0 ../lib\libpp.a(pp.o)
                                0x1a8 (size before relaxing)
 .xt.lit        0x00000d60       0x18 ../lib\libpp.a(rate_control.o)
                                 0x38 (size before relaxing)
 .xt.lit        0x00000d78       0x60 ../lib\libpp.a(trc.o)
                                 0x90 (size before relaxing)
 .xt.lit        0x00000dd8       0xf0 ../lib\libpp.a(wdev.o)
                                0x198 (size before relaxing)
 .xt.lit        0x00000ec8       0x18 ../lib\libpp.a(esf_buf.o)
                                 0x20 (size before relaxing)
 .xt.lit        0x00000ee0       0x30 ../lib\libpp.a(if_hwctrl.o)
                                 0x90 (size before relaxing)
 .xt.lit        0x00000f10       0x10 ../lib\libnet80211.a(ieee80211.o)
                                 0x30 (size before relaxing)
 .xt.lit        0x00000f20        0x0 ../lib\libnet80211.a(ieee80211_crypto.o)
                                 0x10 (size before relaxing)
 .xt.lit        0x00000f20        0x0 ../lib\libnet80211.a(ieee80211_ets.o)
                                  0x8 (size before relaxing)
 .xt.lit        0x00000f20       0x50 ../lib\libnet80211.a(ieee80211_hostap.o)
                                 0x70 (size before relaxing)
 .xt.lit        0x00000f70       0x48 ../lib\libnet80211.a(ieee80211_ht.o)
                                 0x68 (size before relaxing)
 .xt.lit        0x00000fb8       0x20 ../lib\libnet80211.a(ieee80211_input.o)
                                 0x58 (size before relaxing)
 .xt.lit        0x00000fd8       0x38 ../lib\libnet80211.a(ieee80211_output.o)
                                 0x80 (size before relaxing)
 .xt.lit        0x00001010       0x10 ../lib\libnet80211.a(ieee80211_phy.o)
                                 0x38 (size before relaxing)
 .xt.lit        0x00001020        0x8 ../lib\libnet80211.a(ieee80211_power.o)
                                 0x18 (size before relaxing)
 .xt.lit        0x00001028       0x18 ../lib\libnet80211.a(ieee80211_proto.o)
                                 0x20 (size before relaxing)
 .xt.lit        0x00001040       0x48 ../lib\libnet80211.a(ieee80211_scan.o)
                                 0xd8 (size before relaxing)
 .xt.lit        0x00001088        0x0 ../lib\libnet80211.a(ieee80211_sta.o)
                                 0x50 (size before relaxing)
 .xt.lit        0x00001088       0x20 ../lib\libnet80211.a(wl_chm.o)
                                 0x60 (size before relaxing)
 .xt.lit        0x000010a8       0x90 ../lib\libnet80211.a(wl_cnx.o)
                                 0xf0 (size before relaxing)
 .xt.lit        0x00001138       0x20 ../lib\libnet80211.a(ieee80211_action.o)
                                 0x30 (size before relaxing)
 .xt.lit        0x00001158       0x10 ../lib\libwpa.a(ap_config.o)
                                 0x40 (size before relaxing)
 .xt.lit        0x00001168        0x8 ../lib\libwpa.a(common.o)
                                 0x10 (size before relaxing)
 .xt.lit        0x00001170        0x8 ../lib\libwpa.a(os_xtensa.o)
                                 0x10 (size before relaxing)
 .xt.lit        0x00001178        0x0 ../lib\libwpa.a(sha1-pbkdf2.o)
                                 0x10 (size before relaxing)
 .xt.lit        0x00001178       0x70 ../lib\libwpa.a(wpa_auth.o)
                                0x100 (size before relaxing)
 .xt.lit        0x000011e8        0x8 ../lib\libwpa.a(wpa_auth_ie.o)
                                 0x38 (size before relaxing)
 .xt.lit        0x000011f0       0x40 ../lib\libwpa.a(wpa.o)
                                0x110 (size before relaxing)
 .xt.lit        0x00001230       0x20 ../lib\libwpa.a(wpa_common.o)
                                 0x58 (size before relaxing)
 .xt.lit        0x00001250        0x0 ../lib\libwpa.a(wpa_ie.o)
                                 0x18 (size before relaxing)
 .xt.lit        0x00001250       0x10 ../lib\libwpa.a(wpa_main.o)
                                 0x48 (size before relaxing)
 .xt.lit        0x00001260        0x0 ../lib\libwpa.a(wpas_glue.o)
                                 0x10 (size before relaxing)
 .xt.lit        0x00001260        0x0 ../lib\libwpa.a(aes-unwrap.o)
                                  0x8 (size before relaxing)
 .xt.lit        0x00001260        0x0 ../lib\libwpa.a(aes-wrap.o)
                                  0x8 (size before relaxing)
 .xt.lit        0x00001260        0x0 ../lib\libwpa.a(md5.o)
                                  0x8 (size before relaxing)
 .xt.lit        0x00001260       0x10 ../lib\libwpa.a(md5-internal.o)
                                 0x20 (size before relaxing)
 .xt.lit        0x00001270        0x0 ../lib\libwpa.a(sha1.o)
                                 0x10 (size before relaxing)
 .xt.lit        0x00001270       0x18 ../lib\libwpa.a(sha1-internal.o)
                                 0x20 (size before relaxing)
 .xt.lit        0x00001288       0x18 ../lib\libwpa.a(aes-internal-dec.o)
                                 0x20 (size before relaxing)
 .xt.lit        0x000012a0        0x0 ../lib\libwpa.a(aes-internal-enc.o)
                                 0x18 (size before relaxing)
 .xt.lit        0x000012a0        0x8 ../lib\libwpa.a(aes-internal.o)
 .xt.lit        0x000012a8       0x28 ../lib\libmain.a(libc.o)
                                 0x30 (size before relaxing)
 .xt.lit        0x000012d0       0x10 ../lib\liblwip.a(ethernetif.o)
                                 0x18 (size before relaxing)
 .xt.lit        0x000012e0       0x10 ../lib\liblwip.a(netdb.o)
                                 0x20 (size before relaxing)
 .xt.lit        0x000012f0        0x0 ../lib\libmc.a(lib_a-strncpy.o)
                                  0x8 (size before relaxing)
 .xt.lit        0x000012f0        0x8 ../lib\libmgcc.a(_divsf3.o)
 .xt.lit        0x000012f8        0x0 ../lib\libmgcc.a(_fixsfsi.o)
                                  0x8 (size before relaxing)
 .xt.lit        0x000012f8        0x8 ../lib\libmgcc.a(_popcountsi2.o)
 .xt.lit        0x00001300        0x0 ../lib\libnet80211.a(ieee80211_crypto_ccmp.o)
                                  0x8 (size before relaxing)
 .xt.lit        0x00001300        0x8 ../lib\libnet80211.a(ieee80211_crypto_tkip.o)
                                 0x10 (size before relaxing)
 .xt.lit        0x00001308        0x0 ../lib\libnet80211.a(ieee80211_crypto_wep.o)
                                  0x8 (size before relaxing)

.xt.prop        0x00000000    0x26124
 .xt.prop       0x00000000      0x144 ../lib\libmain.a(xtensa_vectors.o)
                                0x18c (size before relaxing)
 .xt.prop       0x00000144      0x5ac ../lib\libmain.a(app_main.o)
                                0x5f4 (size before relaxing)
 .xt.prop       0x000006f0      0x3d8 ../lib\libmain.a(ets_timer.o)
                                0x438 (size before relaxing)
 .xt.prop       0x00000ac8      0x120 ../lib\libmain.a(misc.o)
                                0x138 (size before relaxing)
 .xt.prop       0x00000be8      0x504 ../lib\libmain.a(printf-stdarg.o)
 .xt.prop       0x000010ec      0x2a0 ../lib\libmain.a(spi_flash.o)
                                0x2b8 (size before relaxing)
 .xt.prop       0x0000138c       0x60 ../lib\libmain.a(uart.o)
                                 0x6c (size before relaxing)
 .xt.prop       0x000013ec     0x1c74 ../lib\libmain.a(user_interface.o)
                               0x1d4c (size before relaxing)
 .xt.prop       0x00003060      0x138 ../lib\libmain.a(os_cpu_a.o)
                                0x144 (size before relaxing)
 .xt.prop       0x00003198       0x30 ../lib\libmain.a(xtensa_context.o)
 .xt.prop       0x000031c8       0xe4 ../lib\libmain.a(timers.o)
                                 0xfc (size before relaxing)
 .xt.prop       0x000032ac      0x258 ../lib\libfreertos.a(heap_4.o)
                                0x2ac (size before relaxing)
 .xt.prop       0x00003504      0x2b8 ../lib\libfreertos.a(port.o)
                                0x30c (size before relaxing)
 .xt.prop       0x000037bc      0x5ac ../lib\libfreertos.a(queue.o)
 .xt.prop       0x00003d68      0xb94 ../lib\libfreertos.a(tasks.o)
                                0xc9c (size before relaxing)
 .xt.prop       0x000048fc      0x3f0 ../lib\libfreertos.a(timers.o)
                                0x444 (size before relaxing)
 .xt.prop       0x00004cec       0xc0 ../lib\libfreertos.a(list.o)
                                 0xd8 (size before relaxing)
 .xt.prop       0x00004dac      0xc9c ../lib\liblwip.a(dhcp.o)
                                0xcc0 (size before relaxing)
 .xt.prop       0x00005a48      0x444 ../lib\liblwip.a(dns.o)
                                0x4a4 (size before relaxing)
 .xt.prop       0x00005e8c      0x690 ../lib\liblwip.a(etharp.o)
                                0x6a8 (size before relaxing)
 .xt.prop       0x0000651c      0x2ac ../lib\liblwip.a(ip4_addr.o)
                                0x2c4 (size before relaxing)
 .xt.prop       0x000067c8      0x2b8 ../lib\liblwip.a(ip4.o)
                                0x2d0 (size before relaxing)
 .xt.prop       0x00006a80       0x90 ../lib\liblwip.a(ip_frag.o)
 .xt.prop       0x00006b10        0x0 ../lib\liblwip.a(memp.o)
                                  0xc (size before relaxing)
 .xt.prop       0x00006b10      0x2f4 ../lib\liblwip.a(netif.o)
                                0x330 (size before relaxing)
 .xt.prop       0x00006e04      0x744 ../lib\liblwip.a(pbuf.o)
                                0x750 (size before relaxing)
 .xt.prop       0x00007548      0x270 ../lib\liblwip.a(raw.o)
                                0x27c (size before relaxing)
 .xt.prop       0x000077b8       0x18 ../lib\liblwip.a(stats.o)
                                 0x30 (size before relaxing)
 .xt.prop       0x000077d0      0x36c ../lib\liblwip.a(sys_arch.o)
                                0x384 (size before relaxing)
 .xt.prop       0x00007b3c      0xb94 ../lib\liblwip.a(tcp_in.o)
                                0xc0c (size before relaxing)
 .xt.prop       0x000086d0      0x3b4 ../lib\liblwip.a(tcpip.o)
                                0x3f0 (size before relaxing)
 .xt.prop       0x00008a84      0xe10 ../lib\liblwip.a(tcp.o)
                                0xea0 (size before relaxing)
 .xt.prop       0x00009894      0x7d4 ../lib\liblwip.a(tcp_out.o)
 .xt.prop       0x0000a068      0x2b8 ../lib\liblwip.a(timers.o)
                                0x2dc (size before relaxing)
 .xt.prop       0x0000a320      0x540 ../lib\liblwip.a(udp.o)
                                0x564 (size before relaxing)
 .xt.prop       0x0000a860      0x114 ../lib\liblwip.a(icmp.o)
 .xt.prop       0x0000a974      0x1b0 ../lib\liblwip.a(inet_chksum.o)
                                0x1bc (size before relaxing)
 .xt.prop       0x0000ab24       0x24 ../lib\liblwip.a(init.o)
 .xt.prop       0x0000ab48     0x1428 ../lib\liblwip.a(sockets.o)
                               0x1464 (size before relaxing)
 .xt.prop       0x0000bf70      0x6f0 ../lib\liblwip.a(api_lib.o)
 .xt.prop       0x0000c660      0xcd8 ../lib\liblwip.a(api_msg.o)
 .xt.prop       0x0000d338      0x24c ../lib\liblwip.a(netbuf.o)
 .xt.prop       0x0000d584      0x378 user/.output/eagle/lib/libuser.a(user_main.o)
                                0x3d8 (size before relaxing)
 .xt.prop       0x0000d8fc      0x1f8 user/.output/eagle/lib/libuser.a(spiram_fifo.o)
                                0x258 (size before relaxing)
 .xt.prop       0x0000daf4      0x1f8 user/.output/eagle/lib/libuser.a(iram_buf.o)
                                0x210 (size before relaxing)
 .xt.prop       0x0000dcec      0x288 mad/.output/eagle/lib/libmad.a(stream.o)
 .xt.prop       0x0000df74      0x1e0 mad/.output/eagle/lib/libmad.a(synth.o)
 .xt.prop       0x0000e154      0x1b0 mad/.output/eagle/lib/libmad.a(bit.o)
 .xt.prop       0x0000e304      0x4b0 mad/.output/eagle/lib/libmad.a(frame.o)
                                0x4c8 (size before relaxing)
 .xt.prop       0x0000e7b4      0x744 mad/.output/eagle/lib/libmad.a(timer.o)
 .xt.prop       0x0000eef8       0x84 mad/.output/eagle/lib/libmad.a(align.o)
 .xt.prop       0x0000ef7c     0x102c mad/.output/eagle/lib/libmad.a(layer3.o)
                               0x10d4 (size before relaxing)
 .xt.prop       0x0000ffa8       0xf0 mad/.output/eagle/lib/libmad.a(huffman.o)
 .xt.prop       0x00010098      0x438 driver/.output/eagle/lib/libdriver.a(uart.o)
 .xt.prop       0x000104d0      0x144 driver/.output/eagle/lib/libdriver.a(i2s_freertos.o)
                                0x18c (size before relaxing)
 .xt.prop       0x00010614       0x3c ../lib\libmc.a(lib_a-bzero.o)
 .xt.prop       0x00010650       0x54 ../lib\libmc.a(lib_a-memcmp.o)
 .xt.prop       0x000106a4       0x78 ../lib\libmc.a(lib_a-memmove.o)
 .xt.prop       0x0001071c      0x108 ../lib\libmc.a(lib_a-strcmp.o)
 .xt.prop       0x00010824       0xe4 ../lib\libmc.a(lib_a-strcpy.o)
                                 0xf0 (size before relaxing)
 .xt.prop       0x00010908       0x78 ../lib\libmc.a(lib_a-strncmp.o)
 .xt.prop       0x00010980       0x78 c:/espressif/xtensa-lx106-elf/bin/../lib/gcc/xtensa-lx106-elf/4.8.2/../../../../xtensa-lx106-elf/lib\libhal.a(clock.o)
 .xt.prop       0x000109f8       0x24 c:/espressif/xtensa-lx106-elf/bin/../lib/gcc/xtensa-lx106-elf/4.8.2/../../../../xtensa-lx106-elf/lib\libhal.a(int_asm--set_intset.o)
 .xt.prop       0x00010a1c      0xa08 ../lib\libmphy.a(phy_chip_v5_ana_romfunc.o)
 .xt.prop       0x00011424      0x5d0 ../lib\libmphy.a(phy_chip_v5_romfunc.o)
                                0x5e8 (size before relaxing)
 .xt.prop       0x000119f4      0x1d4 ../lib\libmphy.a(phy.o)
                                0x1e0 (size before relaxing)
 .xt.prop       0x00011bc8     0x1cd4 ../lib\libmphy.a(phy_chip_v6.o)
                               0x1ec0 (size before relaxing)
 .xt.prop       0x0001389c      0xca8 ../lib\libmphy.a(phy_chip_v6_ana.o)
 .xt.prop       0x00014544      0xe70 ../lib\libmphy.a(phy_chip_v6_cal.o)
                                0xec4 (size before relaxing)
 .xt.prop       0x000153b4      0x870 ../lib\libmphy.a(phy_sleep.o)
                                0x8c4 (size before relaxing)
 .xt.prop       0x00015c24      0x6f0 ../lib\libmphy.a(phy_chip_v5_cal_romfunc.o)
                                0x6fc (size before relaxing)
 .xt.prop       0x00016314     0x10d4 ../lib\libpp.a(lmac.o)
                               0x1128 (size before relaxing)
 .xt.prop       0x000173e8     0x1428 ../lib\libpp.a(pm.o)
                               0x1524 (size before relaxing)
 .xt.prop       0x00018810     0x1710 ../lib\libpp.a(pp.o)
                               0x1890 (size before relaxing)
 .xt.prop       0x00019f20      0x1b0 ../lib\libpp.a(rate_control.o)
                                0x1d4 (size before relaxing)
 .xt.prop       0x0001a0d0      0xd14 ../lib\libpp.a(trc.o)
                                0xd8c (size before relaxing)
 .xt.prop       0x0001ade4     0x1080 ../lib\libpp.a(wdev.o)
                               0x1134 (size before relaxing)
 .xt.prop       0x0001be64      0x318 ../lib\libpp.a(esf_buf.o)
                                0x384 (size before relaxing)
 .xt.prop       0x0001c17c      0x390 ../lib\libpp.a(if_hwctrl.o)
                                0x3a8 (size before relaxing)
 .xt.prop       0x0001c50c      0x2b8 ../lib\libnet80211.a(ieee80211.o)
                                0x2dc (size before relaxing)
 .xt.prop       0x0001c7c4      0x120 ../lib\libnet80211.a(ieee80211_crypto.o)
                                0x12c (size before relaxing)
 .xt.prop       0x0001c8e4       0x54 ../lib\libnet80211.a(ieee80211_ets.o)
 .xt.prop       0x0001c938      0x8c4 ../lib\libnet80211.a(ieee80211_hostap.o)
                                0x924 (size before relaxing)
 .xt.prop       0x0001d1fc      0x60c ../lib\libnet80211.a(ieee80211_ht.o)
 .xt.prop       0x0001d808      0x78c ../lib\libnet80211.a(ieee80211_input.o)
 .xt.prop       0x0001df94      0xa68 ../lib\libnet80211.a(ieee80211_output.o)
                                0xa74 (size before relaxing)
 .xt.prop       0x0001e9fc      0x24c ../lib\libnet80211.a(ieee80211_phy.o)
 .xt.prop       0x0001ec48      0x168 ../lib\libnet80211.a(ieee80211_power.o)
                                0x174 (size before relaxing)
 .xt.prop       0x0001edb0      0x1f8 ../lib\libnet80211.a(ieee80211_proto.o)
                                0x204 (size before relaxing)
 .xt.prop       0x0001efa8      0x9e4 ../lib\libnet80211.a(ieee80211_scan.o)
                                0xa5c (size before relaxing)
 .xt.prop       0x0001f98c      0x810 ../lib\libnet80211.a(ieee80211_sta.o)
 .xt.prop       0x0002019c      0x2e8 ../lib\libnet80211.a(wl_chm.o)
                                0x2f4 (size before relaxing)
 .xt.prop       0x00020484      0xc18 ../lib\libnet80211.a(wl_cnx.o)
                                0xc48 (size before relaxing)
 .xt.prop       0x0002109c      0x2e8 ../lib\libnet80211.a(ieee80211_action.o)
                                0x2f4 (size before relaxing)
 .xt.prop       0x00021384      0x2a0 ../lib\libwpa.a(ap_config.o)
                                0x2ac (size before relaxing)
 .xt.prop       0x00021624      0x1c8 ../lib\libwpa.a(common.o)
                                0x1d4 (size before relaxing)
 .xt.prop       0x000217ec       0x78 ../lib\libwpa.a(os_xtensa.o)
                                 0x84 (size before relaxing)
 .xt.prop       0x00021864       0xc0 ../lib\libwpa.a(sha1-pbkdf2.o)
 .xt.prop       0x00021924     0x1548 ../lib\libwpa.a(wpa_auth.o)
                               0x1578 (size before relaxing)
 .xt.prop       0x00022e6c      0x414 ../lib\libwpa.a(wpa_auth_ie.o)
 .xt.prop       0x00023280      0xc0c ../lib\libwpa.a(wpa.o)
                                0xc3c (size before relaxing)
 .xt.prop       0x00023e8c      0x720 ../lib\libwpa.a(wpa_common.o)
                                0x72c (size before relaxing)
 .xt.prop       0x000245ac       0x30 ../lib\libwpa.a(wpa_debug.o)
                                 0x3c (size before relaxing)
 .xt.prop       0x000245dc      0x348 ../lib\libwpa.a(wpa_ie.o)
 .xt.prop       0x00024924      0x234 ../lib\libwpa.a(wpa_main.o)
 .xt.prop       0x00024b58      0x108 ../lib\libwpa.a(wpas_glue.o)
 .xt.prop       0x00024c60       0x6c ../lib\libwpa.a(aes-unwrap.o)
 .xt.prop       0x00024ccc       0x60 ../lib\libwpa.a(aes-wrap.o)
 .xt.prop       0x00024d2c       0xa8 ../lib\libwpa.a(md5.o)
 .xt.prop       0x00024dd4      0x138 ../lib\libwpa.a(md5-internal.o)
                                0x144 (size before relaxing)
 .xt.prop       0x00024f0c       0x78 ../lib\libwpa.a(rc4.o)
                                 0x84 (size before relaxing)
 .xt.prop       0x00024f84      0x108 ../lib\libwpa.a(sha1.o)
 .xt.prop       0x0002508c      0x138 ../lib\libwpa.a(sha1-internal.o)
                                0x150 (size before relaxing)
 .xt.prop       0x000251c4      0x108 ../lib\libwpa.a(aes-internal-dec.o)
                                0x114 (size before relaxing)
 .xt.prop       0x000252cc       0xcc ../lib\libwpa.a(aes-internal-enc.o)
 .xt.prop       0x00025398       0x3c ../lib\libwpa.a(aes-internal.o)
                                 0x54 (size before relaxing)
 .xt.prop       0x000253d4      0x474 ../lib\libmain.a(libc.o)
                                0x498 (size before relaxing)
 .xt.prop       0x00025848       0xb4 ../lib\liblwip.a(ethernetif.o)
                                 0xc0 (size before relaxing)
 .xt.prop       0x000258fc      0x1bc ../lib\liblwip.a(netdb.o)
                                0x204 (size before relaxing)
 .xt.prop       0x00025ab8       0x48 main/.output/eagle/lib/libaddmmain.a(phy_chip_v6_unused.o)
 .xt.prop       0x00025b00      0x168 ../lib\libmc.a(lib_a-strncpy.o)
                                0x174 (size before relaxing)
 .xt.prop       0x00025c68       0x3c ../lib\libmgcc.a(_ashrdi3.o)
 .xt.prop       0x00025ca4      0x168 ../lib\libmgcc.a(_divsf3.o)
 .xt.prop       0x00025e0c       0x60 ../lib\libmgcc.a(_fixsfsi.o)
                                 0x6c (size before relaxing)
 .xt.prop       0x00025e6c       0x84 ../lib\libmgcc.a(_modsi3.o)
 .xt.prop       0x00025ef0       0x3c ../lib\libmgcc.a(_popcountsi2.o)
 .xt.prop       0x00025f2c        0xc ../lib\libmgcc.a(_popcount_tab.o)
 .xt.prop       0x00025f38       0xb4 ../lib\libnet80211.a(ieee80211_crypto_ccmp.o)
                                 0xc0 (size before relaxing)
 .xt.prop       0x00025fec       0xcc ../lib\libnet80211.a(ieee80211_crypto_tkip.o)
                                 0xe4 (size before relaxing)
 .xt.prop       0x000260b8       0x6c ../lib\libnet80211.a(ieee80211_crypto_wep.o)
                                 0x78 (size before relaxing)

.comment        0x00000000     0x1b2f
 .comment       0x00000000       0x46 ../lib\libmain.a(app_main.o)
 .comment       0x00000046       0x47 ../lib\libmain.a(ets_timer.o)
 .comment       0x0000008d       0x42 ../lib\libmain.a(misc.o)
 .comment       0x000000cf       0x4b ../lib\libmain.a(printf-stdarg.o)
 .comment       0x0000011a       0x47 ../lib\libmain.a(spi_flash.o)
 .comment       0x00000161       0x42 ../lib\libmain.a(uart.o)
 .comment       0x000001a3       0x4c ../lib\libmain.a(user_interface.o)
 .comment       0x000001ef       0x44 ../lib\libmain.a(timers.o)
 .comment       0x00000233       0x44 ../lib\libfreertos.a(heap_4.o)
 .comment       0x00000277       0x42 ../lib\libfreertos.a(port.o)
 .comment       0x000002b9       0x43 ../lib\libfreertos.a(queue.o)
 .comment       0x000002fc       0x43 ../lib\libfreertos.a(tasks.o)
 .comment       0x0000033f       0x44 ../lib\libfreertos.a(timers.o)
 .comment       0x00000383       0x42 ../lib\libfreertos.a(list.o)
 .comment       0x000003c5       0x42 ../lib\liblwip.a(dhcp.o)
 .comment       0x00000407       0x41 ../lib\liblwip.a(dns.o)
 .comment       0x00000448       0x44 ../lib\liblwip.a(etharp.o)
 .comment       0x0000048c       0x46 ../lib\liblwip.a(ip4_addr.o)
 .comment       0x000004d2       0x41 ../lib\liblwip.a(ip4.o)
 .comment       0x00000513       0x45 ../lib\liblwip.a(ip_frag.o)
 .comment       0x00000558       0x42 ../lib\liblwip.a(memp.o)
 .comment       0x0000059a       0x43 ../lib\liblwip.a(netif.o)
 .comment       0x000005dd       0x42 ../lib\liblwip.a(pbuf.o)
 .comment       0x0000061f       0x41 ../lib\liblwip.a(raw.o)
 .comment       0x00000660       0x43 ../lib\liblwip.a(stats.o)
 .comment       0x000006a3       0x46 ../lib\liblwip.a(sys_arch.o)
 .comment       0x000006e9       0x44 ../lib\liblwip.a(tcp_in.o)
 .comment       0x0000072d       0x43 ../lib\liblwip.a(tcpip.o)
 .comment       0x00000770       0x41 ../lib\liblwip.a(tcp.o)
 .comment       0x000007b1       0x45 ../lib\liblwip.a(tcp_out.o)
 .comment       0x000007f6       0x44 ../lib\liblwip.a(timers.o)
 .comment       0x0000083a       0x41 ../lib\liblwip.a(udp.o)
 .comment       0x0000087b       0x42 ../lib\liblwip.a(icmp.o)
 .comment       0x000008bd       0x49 ../lib\liblwip.a(inet_chksum.o)
 .comment       0x00000906       0x42 ../lib\liblwip.a(init.o)
 .comment       0x00000948       0x45 ../lib\liblwip.a(sockets.o)
 .comment       0x0000098d       0x45 ../lib\liblwip.a(api_lib.o)
 .comment       0x000009d2       0x45 ../lib\liblwip.a(api_msg.o)
 .comment       0x00000a17       0x44 ../lib\liblwip.a(netbuf.o)
 .comment       0x00000a5b       0x11 user/.output/eagle/lib/libuser.a(user_main.o)
                                 0x12 (size before relaxing)
 .comment       0x00000000       0x12 user/.output/eagle/lib/libuser.a(spiram_fifo.o)
 .comment       0x00000000       0x12 user/.output/eagle/lib/libuser.a(iram_buf.o)
 .comment       0x00000000       0x12 mad/.output/eagle/lib/libmad.a(stream.o)
 .comment       0x00000000       0x12 mad/.output/eagle/lib/libmad.a(synth.o)
 .comment       0x00000000       0x12 mad/.output/eagle/lib/libmad.a(bit.o)
 .comment       0x00000000       0x12 mad/.output/eagle/lib/libmad.a(frame.o)
 .comment       0x00000000       0x12 mad/.output/eagle/lib/libmad.a(timer.o)
 .comment       0x00000000       0x12 mad/.output/eagle/lib/libmad.a(align.o)
 .comment       0x00000000       0x12 mad/.output/eagle/lib/libmad.a(layer3.o)
 .comment       0x00000000       0x12 mad/.output/eagle/lib/libmad.a(huffman.o)
 .comment       0x00000000       0x12 driver/.output/eagle/lib/libdriver.a(uart.o)
 .comment       0x00000000       0x12 driver/.output/eagle/lib/libdriver.a(i2s_freertos.o)
 .comment       0x00000000       0x12 ../lib\libmc.a(lib_a-bzero.o)
 .comment       0x00000000       0x12 ../lib\libmc.a(lib_a-memcmp.o)
 .comment       0x00000000       0x12 ../lib\libmc.a(lib_a-memmove.o)
 .comment       0x00000000       0x12 ../lib\libmc.a(lib_a-strncmp.o)
 .comment       0x00000a6c       0x55 ../lib\libmphy.a(phy_chip_v5_ana_romfunc.o)
 .comment       0x00000ac1       0x51 ../lib\libmphy.a(phy_chip_v5_romfunc.o)
 .comment       0x00000b12       0x41 ../lib\libmphy.a(phy.o)
 .comment       0x00000b53       0x49 ../lib\libmphy.a(phy_chip_v6.o)
 .comment       0x00000b9c       0x4d ../lib\libmphy.a(phy_chip_v6_ana.o)
 .comment       0x00000be9       0x4d ../lib\libmphy.a(phy_chip_v6_cal.o)
 .comment       0x00000c36       0x47 ../lib\libmphy.a(phy_sleep.o)
 .comment       0x00000c7d       0x55 ../lib\libmphy.a(phy_chip_v5_cal_romfunc.o)
 .comment       0x00000cd2       0x42 ../lib\libpp.a(lmac.o)
 .comment       0x00000d14       0x40 ../lib\libpp.a(pm.o)
 .comment       0x00000d54       0x40 ../lib\libpp.a(pp.o)
 .comment       0x00000d94       0x4a ../lib\libpp.a(rate_control.o)
 .comment       0x00000dde       0x41 ../lib\libpp.a(trc.o)
 .comment       0x00000e1f       0x42 ../lib\libpp.a(wdev.o)
 .comment       0x00000e61       0x45 ../lib\libpp.a(esf_buf.o)
 .comment       0x00000ea6       0x47 ../lib\libpp.a(if_hwctrl.o)
 .comment       0x00000eed       0x47 ../lib\libnet80211.a(ieee80211.o)
 .comment       0x00000f34       0x4e ../lib\libnet80211.a(ieee80211_crypto.o)
 .comment       0x00000f82       0x4b ../lib\libnet80211.a(ieee80211_ets.o)
 .comment       0x00000fcd       0x4e ../lib\libnet80211.a(ieee80211_hostap.o)
 .comment       0x0000101b       0x4a ../lib\libnet80211.a(ieee80211_ht.o)
 .comment       0x00001065       0x4d ../lib\libnet80211.a(ieee80211_input.o)
 .comment       0x000010b2       0x4e ../lib\libnet80211.a(ieee80211_output.o)
 .comment       0x00001100       0x4b ../lib\libnet80211.a(ieee80211_phy.o)
 .comment       0x0000114b       0x4d ../lib\libnet80211.a(ieee80211_power.o)
 .comment       0x00001198       0x4d ../lib\libnet80211.a(ieee80211_proto.o)
 .comment       0x000011e5       0x4c ../lib\libnet80211.a(ieee80211_scan.o)
 .comment       0x00001231       0x4b ../lib\libnet80211.a(ieee80211_sta.o)
 .comment       0x0000127c       0x44 ../lib\libnet80211.a(wl_chm.o)
 .comment       0x000012c0       0x44 ../lib\libnet80211.a(wl_cnx.o)
 .comment       0x00001304       0x4e ../lib\libnet80211.a(ieee80211_action.o)
 .comment       0x00001352       0x47 ../lib\libwpa.a(ap_config.o)
 .comment       0x00001399       0x44 ../lib\libwpa.a(common.o)
 .comment       0x000013dd       0x47 ../lib\libwpa.a(os_xtensa.o)
 .comment       0x00001424       0x49 ../lib\libwpa.a(sha1-pbkdf2.o)
 .comment       0x0000146d       0x46 ../lib\libwpa.a(wpa_auth.o)
 .comment       0x000014b3       0x49 ../lib\libwpa.a(wpa_auth_ie.o)
 .comment       0x000014fc       0x41 ../lib\libwpa.a(wpa.o)
 .comment       0x0000153d       0x48 ../lib\libwpa.a(wpa_common.o)
 .comment       0x00001585       0x47 ../lib\libwpa.a(wpa_debug.o)
 .comment       0x000015cc       0x44 ../lib\libwpa.a(wpa_ie.o)
 .comment       0x00001610       0x46 ../lib\libwpa.a(wpa_main.o)
 .comment       0x00001656       0x47 ../lib\libwpa.a(wpas_glue.o)
 .comment       0x0000169d       0x48 ../lib\libwpa.a(aes-unwrap.o)
 .comment       0x000016e5       0x46 ../lib\libwpa.a(aes-wrap.o)
 .comment       0x0000172b       0x41 ../lib\libwpa.a(md5.o)
 .comment       0x0000176c       0x4a ../lib\libwpa.a(md5-internal.o)
 .comment       0x000017b6       0x41 ../lib\libwpa.a(rc4.o)
 .comment       0x000017f7       0x42 ../lib\libwpa.a(sha1.o)
 .comment       0x00001839       0x4b ../lib\libwpa.a(sha1-internal.o)
 .comment       0x00001884       0x4e ../lib\libwpa.a(aes-internal-dec.o)
 .comment       0x000018d2       0x4e ../lib\libwpa.a(aes-internal-enc.o)
 .comment       0x00001920       0x4a ../lib\libwpa.a(aes-internal.o)
 .comment       0x0000196a       0x42 ../lib\libmain.a(libc.o)
 .comment       0x000019ac       0x48 ../lib\liblwip.a(ethernetif.o)
 .comment       0x000019f4       0x43 ../lib\liblwip.a(netdb.o)
 .comment       0x00000000       0x12 main/.output/eagle/lib/libaddmmain.a(phy_chip_v6_unused.o)
 .comment       0x00000000       0x12 ../lib\libmgcc.a(_popcountsi2.o)
 .comment       0x00000000       0x12 ../lib\libmgcc.a(_popcount_tab.o)
 .comment       0x00001a37       0x53 ../lib\libnet80211.a(ieee80211_crypto_ccmp.o)
 .comment       0x00001a8a       0x53 ../lib\libnet80211.a(ieee80211_crypto_tkip.o)
 .comment       0x00001add       0x52 ../lib\libnet80211.a(ieee80211_crypto_wep.o)

.debug_frame    0x00000000       0xa0
 .debug_frame   0x00000000       0x20 ../lib\libmc.a(lib_a-bzero.o)
 .debug_frame   0x00000020       0x20 ../lib\libmc.a(lib_a-memcmp.o)
 .debug_frame   0x00000040       0x20 ../lib\libmc.a(lib_a-memmove.o)
 .debug_frame   0x00000060       0x20 ../lib\libmc.a(lib_a-strncmp.o)
 .debug_frame   0x00000080       0x20 ../lib\libmgcc.a(_popcountsi2.o)

.debug_info     0x00000000      0x9e3
 .debug_info    0x00000000       0xca ../lib\libmc.a(lib_a-bzero.o)
 .debug_info    0x000000ca       0xef ../lib\libmc.a(lib_a-memcmp.o)
 .debug_info    0x000001b9      0x102 ../lib\libmc.a(lib_a-memmove.o)
 .debug_info    0x000002bb       0xbc ../lib\libmc.a(lib_a-strcmp.o)
 .debug_info    0x00000377       0xbc ../lib\libmc.a(lib_a-strcpy.o)
 .debug_info    0x00000433       0xcf ../lib\libmc.a(lib_a-strncmp.o)
 .debug_info    0x00000502       0xbd ../lib\libmc.a(lib_a-strncpy.o)
 .debug_info    0x000005bf       0x9e ../lib\libmgcc.a(_ashrdi3.o)
 .debug_info    0x0000065d       0x9f ../lib\libmgcc.a(_divsf3.o)
 .debug_info    0x000006fc       0x9f ../lib\libmgcc.a(_fixsfsi.o)
 .debug_info    0x0000079b       0x9e ../lib\libmgcc.a(_modsi3.o)
 .debug_info    0x00000839       0xff ../lib\libmgcc.a(_popcountsi2.o)
 .debug_info    0x00000938       0xab ../lib\libmgcc.a(_popcount_tab.o)

.debug_abbrev   0x00000000      0x3aa
 .debug_abbrev  0x00000000       0x8c ../lib\libmc.a(lib_a-bzero.o)
 .debug_abbrev  0x0000008c       0x8e ../lib\libmc.a(lib_a-memcmp.o)
 .debug_abbrev  0x0000011a       0x9c ../lib\libmc.a(lib_a-memmove.o)
 .debug_abbrev  0x000001b6       0x14 ../lib\libmc.a(lib_a-strcmp.o)
 .debug_abbrev  0x000001ca       0x14 ../lib\libmc.a(lib_a-strcpy.o)
 .debug_abbrev  0x000001de       0x70 ../lib\libmc.a(lib_a-strncmp.o)
 .debug_abbrev  0x0000024e       0x14 ../lib\libmc.a(lib_a-strncpy.o)
 .debug_abbrev  0x00000262       0x14 ../lib\libmgcc.a(_ashrdi3.o)
 .debug_abbrev  0x00000276       0x14 ../lib\libmgcc.a(_divsf3.o)
 .debug_abbrev  0x0000028a       0x14 ../lib\libmgcc.a(_fixsfsi.o)
 .debug_abbrev  0x0000029e       0x14 ../lib\libmgcc.a(_modsi3.o)
 .debug_abbrev  0x000002b2       0x9b ../lib\libmgcc.a(_popcountsi2.o)
 .debug_abbrev  0x0000034d       0x5d ../lib\libmgcc.a(_popcount_tab.o)

.debug_loc      0x00000000      0x3d4
 .debug_loc     0x00000000       0x83 ../lib\libmc.a(lib_a-bzero.o)
 .debug_loc     0x00000083      0x12d ../lib\libmc.a(lib_a-memcmp.o)
 .debug_loc     0x000001b0      0x121 ../lib\libmc.a(lib_a-memmove.o)
 .debug_loc     0x000002d1       0x8c ../lib\libmc.a(lib_a-strncmp.o)
 .debug_loc     0x0000035d       0x77 ../lib\libmgcc.a(_popcountsi2.o)

.debug_aranges  0x00000000      0x198
 .debug_aranges
                0x00000000       0x20 ../lib\libmc.a(lib_a-bzero.o)
 .debug_aranges
                0x00000020       0x20 ../lib\libmc.a(lib_a-memcmp.o)
 .debug_aranges
                0x00000040       0x20 ../lib\libmc.a(lib_a-memmove.o)
 .debug_aranges
                0x00000060       0x20 ../lib\libmc.a(lib_a-strcmp.o)
 .debug_aranges
                0x00000080       0x20 ../lib\libmc.a(lib_a-strcpy.o)
 .debug_aranges
                0x000000a0       0x20 ../lib\libmc.a(lib_a-strncmp.o)
 .debug_aranges
                0x000000c0       0x20 ../lib\libmc.a(lib_a-strncpy.o)
 .debug_aranges
                0x000000e0       0x20 ../lib\libmgcc.a(_ashrdi3.o)
 .debug_aranges
                0x00000100       0x20 ../lib\libmgcc.a(_divsf3.o)
 .debug_aranges
                0x00000120       0x20 ../lib\libmgcc.a(_fixsfsi.o)
 .debug_aranges
                0x00000140       0x20 ../lib\libmgcc.a(_modsi3.o)
 .debug_aranges
                0x00000160       0x20 ../lib\libmgcc.a(_popcountsi2.o)
 .debug_aranges
                0x00000180       0x18 ../lib\libmgcc.a(_popcount_tab.o)

.debug_line     0x00000000     0x11b7
 .debug_line    0x00000000      0x12f ../lib\libmc.a(lib_a-bzero.o)
 .debug_line    0x0000012f      0x135 ../lib\libmc.a(lib_a-memcmp.o)
 .debug_line    0x00000264      0x15a ../lib\libmc.a(lib_a-memmove.o)
 .debug_line    0x000003be      0x284 ../lib\libmc.a(lib_a-strcmp.o)
 .debug_line    0x00000642      0x180 ../lib\libmc.a(lib_a-strcpy.o)
 .debug_line    0x000007c2      0x153 ../lib\libmc.a(lib_a-strncmp.o)
 .debug_line    0x00000915      0x29b ../lib\libmc.a(lib_a-strncpy.o)
 .debug_line    0x00000bb0       0x85 ../lib\libmgcc.a(_ashrdi3.o)
 .debug_line    0x00000c35      0x2e4 ../lib\libmgcc.a(_divsf3.o)
 .debug_line    0x00000f19       0xe0 ../lib\libmgcc.a(_fixsfsi.o)
 .debug_line    0x00000ff9       0xe5 ../lib\libmgcc.a(_modsi3.o)
 .debug_line    0x000010de       0x92 ../lib\libmgcc.a(_popcountsi2.o)
 .debug_line    0x00001170       0x47 ../lib\libmgcc.a(_popcount_tab.o)

.debug_str      0x00000000      0x2e5
 .debug_str     0x00000000      0x11f ../lib\libmc.a(lib_a-bzero.o)
                                0x158 (size before relaxing)
 .debug_str     0x0000011f       0x32 ../lib\libmc.a(lib_a-memcmp.o)
                                0x153 (size before relaxing)
 .debug_str     0x00000151       0x46 ../lib\libmc.a(lib_a-memmove.o)
                                0x16e (size before relaxing)
 .debug_str     0x00000197       0x34 ../lib\libmc.a(lib_a-strncmp.o)
                                0x155 (size before relaxing)
 .debug_str     0x000001cb      0x11a ../lib\libmgcc.a(_popcountsi2.o)
                                0x199 (size before relaxing)
 .debug_str     0x00000000      0x183 ../lib\libmgcc.a(_popcount_tab.o)
